
final.elf:     file format elf32-littlearm


Disassembly of section .isr_vector:

08000000 <vectors>:
 8000000:	20018000 	andcs	r8, r1, r0
 8000004:	0800024b 	stmdaeq	r0, {r0, r1, r3, r6, r9}
 8000008:	08000245 	stmdaeq	r0, {r0, r2, r6, r9}
 800000c:	08000245 	stmdaeq	r0, {r0, r2, r6, r9}
 8000010:	08000245 	stmdaeq	r0, {r0, r2, r6, r9}
 8000014:	08000245 	stmdaeq	r0, {r0, r2, r6, r9}
 8000018:	08000245 	stmdaeq	r0, {r0, r2, r6, r9}
	...
 800002c:	08000c09 	stmdaeq	r0, {r0, r3, sl, fp}
 8000030:	08000245 	stmdaeq	r0, {r0, r2, r6, r9}
 8000034:	00000000 	andeq	r0, r0, r0
 8000038:	08000f11 	stmdaeq	r0, {r0, r4, r8, r9, sl, fp}
 800003c:	08000f73 	stmdaeq	r0, {r0, r1, r4, r5, r6, r8, r9, sl, fp}
 8000040:	08000245 	stmdaeq	r0, {r0, r2, r6, r9}
 8000044:	08000245 	stmdaeq	r0, {r0, r2, r6, r9}
 8000048:	08000245 	stmdaeq	r0, {r0, r2, r6, r9}
 800004c:	08000245 	stmdaeq	r0, {r0, r2, r6, r9}
 8000050:	08000245 	stmdaeq	r0, {r0, r2, r6, r9}
 8000054:	08000245 	stmdaeq	r0, {r0, r2, r6, r9}
 8000058:	08000245 	stmdaeq	r0, {r0, r2, r6, r9}
 800005c:	08000245 	stmdaeq	r0, {r0, r2, r6, r9}
 8000060:	08000245 	stmdaeq	r0, {r0, r2, r6, r9}
 8000064:	08000245 	stmdaeq	r0, {r0, r2, r6, r9}
 8000068:	08000245 	stmdaeq	r0, {r0, r2, r6, r9}
 800006c:	08000245 	stmdaeq	r0, {r0, r2, r6, r9}
 8000070:	08000245 	stmdaeq	r0, {r0, r2, r6, r9}
 8000074:	08000245 	stmdaeq	r0, {r0, r2, r6, r9}
 8000078:	08000245 	stmdaeq	r0, {r0, r2, r6, r9}
 800007c:	08000245 	stmdaeq	r0, {r0, r2, r6, r9}
 8000080:	08000245 	stmdaeq	r0, {r0, r2, r6, r9}
 8000084:	08000245 	stmdaeq	r0, {r0, r2, r6, r9}
 8000088:	08000245 	stmdaeq	r0, {r0, r2, r6, r9}
 800008c:	08000245 	stmdaeq	r0, {r0, r2, r6, r9}
 8000090:	08000245 	stmdaeq	r0, {r0, r2, r6, r9}
 8000094:	08000245 	stmdaeq	r0, {r0, r2, r6, r9}
 8000098:	08000245 	stmdaeq	r0, {r0, r2, r6, r9}
 800009c:	08000245 	stmdaeq	r0, {r0, r2, r6, r9}
 80000a0:	08000245 	stmdaeq	r0, {r0, r2, r6, r9}
 80000a4:	08000245 	stmdaeq	r0, {r0, r2, r6, r9}
 80000a8:	08000245 	stmdaeq	r0, {r0, r2, r6, r9}
 80000ac:	08000245 	stmdaeq	r0, {r0, r2, r6, r9}
 80000b0:	08000b1d 	stmdaeq	r0, {r0, r2, r3, r4, r8, r9, fp}
 80000b4:	08000245 	stmdaeq	r0, {r0, r2, r6, r9}
 80000b8:	08000245 	stmdaeq	r0, {r0, r2, r6, r9}
 80000bc:	08000245 	stmdaeq	r0, {r0, r2, r6, r9}
 80000c0:	08000245 	stmdaeq	r0, {r0, r2, r6, r9}
 80000c4:	08000245 	stmdaeq	r0, {r0, r2, r6, r9}
 80000c8:	08000245 	stmdaeq	r0, {r0, r2, r6, r9}
 80000cc:	08000245 	stmdaeq	r0, {r0, r2, r6, r9}
 80000d0:	08000245 	stmdaeq	r0, {r0, r2, r6, r9}
 80000d4:	08000245 	stmdaeq	r0, {r0, r2, r6, r9}
 80000d8:	08000245 	stmdaeq	r0, {r0, r2, r6, r9}
 80000dc:	08000245 	stmdaeq	r0, {r0, r2, r6, r9}
 80000e0:	08000459 	stmdaeq	r0, {r0, r3, r4, r6, sl}
 80000e4:	08000245 	stmdaeq	r0, {r0, r2, r6, r9}
 80000e8:	08000245 	stmdaeq	r0, {r0, r2, r6, r9}
 80000ec:	08000245 	stmdaeq	r0, {r0, r2, r6, r9}
 80000f0:	08000245 	stmdaeq	r0, {r0, r2, r6, r9}
 80000f4:	08000245 	stmdaeq	r0, {r0, r2, r6, r9}
 80000f8:	08000245 	stmdaeq	r0, {r0, r2, r6, r9}
 80000fc:	08000245 	stmdaeq	r0, {r0, r2, r6, r9}
 8000100:	08000245 	stmdaeq	r0, {r0, r2, r6, r9}
 8000104:	08000245 	stmdaeq	r0, {r0, r2, r6, r9}
 8000108:	08000245 	stmdaeq	r0, {r0, r2, r6, r9}
 800010c:	08000245 	stmdaeq	r0, {r0, r2, r6, r9}
 8000110:	08000245 	stmdaeq	r0, {r0, r2, r6, r9}
 8000114:	08000245 	stmdaeq	r0, {r0, r2, r6, r9}
 8000118:	08000245 	stmdaeq	r0, {r0, r2, r6, r9}
 800011c:	08000245 	stmdaeq	r0, {r0, r2, r6, r9}
 8000120:	08000245 	stmdaeq	r0, {r0, r2, r6, r9}
 8000124:	08000245 	stmdaeq	r0, {r0, r2, r6, r9}
 8000128:	08000245 	stmdaeq	r0, {r0, r2, r6, r9}
 800012c:	08000245 	stmdaeq	r0, {r0, r2, r6, r9}
 8000130:	08000245 	stmdaeq	r0, {r0, r2, r6, r9}
 8000134:	08000245 	stmdaeq	r0, {r0, r2, r6, r9}
 8000138:	08000245 	stmdaeq	r0, {r0, r2, r6, r9}
 800013c:	08000245 	stmdaeq	r0, {r0, r2, r6, r9}
 8000140:	08000245 	stmdaeq	r0, {r0, r2, r6, r9}
 8000144:	08000245 	stmdaeq	r0, {r0, r2, r6, r9}
 8000148:	08000245 	stmdaeq	r0, {r0, r2, r6, r9}
 800014c:	08000245 	stmdaeq	r0, {r0, r2, r6, r9}
 8000150:	08000245 	stmdaeq	r0, {r0, r2, r6, r9}
 8000154:	08000245 	stmdaeq	r0, {r0, r2, r6, r9}
 8000158:	08000245 	stmdaeq	r0, {r0, r2, r6, r9}
 800015c:	08000245 	stmdaeq	r0, {r0, r2, r6, r9}
 8000160:	08000245 	stmdaeq	r0, {r0, r2, r6, r9}
 8000164:	08000245 	stmdaeq	r0, {r0, r2, r6, r9}
 8000168:	08000245 	stmdaeq	r0, {r0, r2, r6, r9}
 800016c:	08000245 	stmdaeq	r0, {r0, r2, r6, r9}
 8000170:	08000245 	stmdaeq	r0, {r0, r2, r6, r9}
 8000174:	08000245 	stmdaeq	r0, {r0, r2, r6, r9}
 8000178:	08000245 	stmdaeq	r0, {r0, r2, r6, r9}
 800017c:	00000000 	andeq	r0, r0, r0
 8000180:	08000245 	stmdaeq	r0, {r0, r2, r6, r9}
 8000184:	08000245 	stmdaeq	r0, {r0, r2, r6, r9}

Disassembly of section .text:

08000188 <__do_global_dtors_aux>:
 8000188:	b510      	push	{r4, lr}
 800018a:	4c05      	ldr	r4, [pc, #20]	; (80001a0 <__do_global_dtors_aux+0x18>)
 800018c:	7823      	ldrb	r3, [r4, #0]
 800018e:	b933      	cbnz	r3, 800019e <__do_global_dtors_aux+0x16>
 8000190:	4b04      	ldr	r3, [pc, #16]	; (80001a4 <__do_global_dtors_aux+0x1c>)
 8000192:	b113      	cbz	r3, 800019a <__do_global_dtors_aux+0x12>
 8000194:	4804      	ldr	r0, [pc, #16]	; (80001a8 <__do_global_dtors_aux+0x20>)
 8000196:	f3af 8000 	nop.w
 800019a:	2301      	movs	r3, #1
 800019c:	7023      	strb	r3, [r4, #0]
 800019e:	bd10      	pop	{r4, pc}
 80001a0:	20000080 	andcs	r0, r0, r0, lsl #1
 80001a4:	00000000 	andeq	r0, r0, r0
 80001a8:	080080c0 	stmdaeq	r0, {r6, r7, pc}

080001ac <frame_dummy>:
 80001ac:	b508      	push	{r3, lr}
 80001ae:	4b03      	ldr	r3, [pc, #12]	; (80001bc <frame_dummy+0x10>)
 80001b0:	b11b      	cbz	r3, 80001ba <frame_dummy+0xe>
 80001b2:	4903      	ldr	r1, [pc, #12]	; (80001c0 <frame_dummy+0x14>)
 80001b4:	4803      	ldr	r0, [pc, #12]	; (80001c4 <frame_dummy+0x18>)
 80001b6:	f3af 8000 	nop.w
 80001ba:	bd08      	pop	{r3, pc}
 80001bc:	00000000 	andeq	r0, r0, r0
 80001c0:	20000084 	andcs	r0, r0, r4, lsl #1
 80001c4:	080080c0 	stmdaeq	r0, {r6, r7, pc}

080001c8 <_stack_init>:
 80001c8:	f5a3 3a80 	sub.w	sl, r3, #65536	; 0x10000
 80001cc:	4770      	bx	lr
 80001ce:	bf00      	nop

080001d0 <_mainCRTStartup>:
 80001d0:	4b17      	ldr	r3, [pc, #92]	; (8000230 <_mainCRTStartup+0x60>)
 80001d2:	2b00      	cmp	r3, #0
 80001d4:	bf08      	it	eq
 80001d6:	4b13      	ldreq	r3, [pc, #76]	; (8000224 <_mainCRTStartup+0x54>)
 80001d8:	469d      	mov	sp, r3
 80001da:	f7ff fff5 	bl	80001c8 <_stack_init>
 80001de:	2100      	movs	r1, #0
 80001e0:	468b      	mov	fp, r1
 80001e2:	460f      	mov	r7, r1
 80001e4:	4813      	ldr	r0, [pc, #76]	; (8000234 <_mainCRTStartup+0x64>)
 80001e6:	4a14      	ldr	r2, [pc, #80]	; (8000238 <_mainCRTStartup+0x68>)
 80001e8:	1a12      	subs	r2, r2, r0
 80001ea:	f007 ff03 	bl	8007ff4 <memset>
 80001ee:	4b0e      	ldr	r3, [pc, #56]	; (8000228 <_mainCRTStartup+0x58>)
 80001f0:	2b00      	cmp	r3, #0
 80001f2:	d000      	beq.n	80001f6 <_mainCRTStartup+0x26>
 80001f4:	4798      	blx	r3
 80001f6:	4b0d      	ldr	r3, [pc, #52]	; (800022c <_mainCRTStartup+0x5c>)
 80001f8:	2b00      	cmp	r3, #0
 80001fa:	d000      	beq.n	80001fe <_mainCRTStartup+0x2e>
 80001fc:	4798      	blx	r3
 80001fe:	2000      	movs	r0, #0
 8000200:	2100      	movs	r1, #0
 8000202:	0004      	movs	r4, r0
 8000204:	000d      	movs	r5, r1
 8000206:	480d      	ldr	r0, [pc, #52]	; (800023c <_mainCRTStartup+0x6c>)
 8000208:	2800      	cmp	r0, #0
 800020a:	d002      	beq.n	8000212 <_mainCRTStartup+0x42>
 800020c:	480c      	ldr	r0, [pc, #48]	; (8000240 <_mainCRTStartup+0x70>)
 800020e:	f3af 8000 	nop.w
 8000212:	f007 fecb 	bl	8007fac <__libc_init_array>
 8000216:	0020      	movs	r0, r4
 8000218:	0029      	movs	r1, r5
 800021a:	f000 f9d5 	bl	80005c8 <main>
 800021e:	f007 feb1 	bl	8007f84 <exit>
 8000222:	bf00      	nop
 8000224:	00080000 	andeq	r0, r8, r0
	...
 8000234:	20000080 	andcs	r0, r0, r0, lsl #1
 8000238:	20012f28 	andcs	r2, r1, r8, lsr #30
	...

08000244 <Default_Handler>:
 8000244:	b480      	push	{r7}
 8000246:	af00      	add	r7, sp, #0
 8000248:	e7fe      	b.n	8000248 <Default_Handler+0x4>

0800024a <Reset_Handler>:
 800024a:	b580      	push	{r7, lr}
 800024c:	b086      	sub	sp, #24
 800024e:	af00      	add	r7, sp, #0
 8000250:	f8df d094 	ldr.w	sp, [pc, #148]	; 80002e8 <Reset_Handler+0x9e>
 8000254:	4a1e      	ldr	r2, [pc, #120]	; (80002d0 <Reset_Handler+0x86>)
 8000256:	4b1f      	ldr	r3, [pc, #124]	; (80002d4 <Reset_Handler+0x8a>)
 8000258:	1ad3      	subs	r3, r2, r3
 800025a:	607b      	str	r3, [r7, #4]
 800025c:	4b1d      	ldr	r3, [pc, #116]	; (80002d4 <Reset_Handler+0x8a>)
 800025e:	617b      	str	r3, [r7, #20]
 8000260:	4b1d      	ldr	r3, [pc, #116]	; (80002d8 <Reset_Handler+0x8e>)
 8000262:	613b      	str	r3, [r7, #16]
 8000264:	2300      	movs	r3, #0
 8000266:	60fb      	str	r3, [r7, #12]
 8000268:	e00a      	b.n	8000280 <Reset_Handler+0x36>
 800026a:	693a      	ldr	r2, [r7, #16]
 800026c:	1c53      	adds	r3, r2, #1
 800026e:	613b      	str	r3, [r7, #16]
 8000270:	697b      	ldr	r3, [r7, #20]
 8000272:	1c59      	adds	r1, r3, #1
 8000274:	6179      	str	r1, [r7, #20]
 8000276:	7812      	ldrb	r2, [r2, #0]
 8000278:	701a      	strb	r2, [r3, #0]
 800027a:	68fb      	ldr	r3, [r7, #12]
 800027c:	3301      	adds	r3, #1
 800027e:	60fb      	str	r3, [r7, #12]
 8000280:	68fa      	ldr	r2, [r7, #12]
 8000282:	687b      	ldr	r3, [r7, #4]
 8000284:	429a      	cmp	r2, r3
 8000286:	d3f0      	bcc.n	800026a <Reset_Handler+0x20>
 8000288:	4a14      	ldr	r2, [pc, #80]	; (80002dc <Reset_Handler+0x92>)
 800028a:	4b15      	ldr	r3, [pc, #84]	; (80002e0 <Reset_Handler+0x96>)
 800028c:	1ad3      	subs	r3, r2, r3
 800028e:	607b      	str	r3, [r7, #4]
 8000290:	4b13      	ldr	r3, [pc, #76]	; (80002e0 <Reset_Handler+0x96>)
 8000292:	617b      	str	r3, [r7, #20]
 8000294:	2300      	movs	r3, #0
 8000296:	60bb      	str	r3, [r7, #8]
 8000298:	e007      	b.n	80002aa <Reset_Handler+0x60>
 800029a:	697b      	ldr	r3, [r7, #20]
 800029c:	1c5a      	adds	r2, r3, #1
 800029e:	617a      	str	r2, [r7, #20]
 80002a0:	2200      	movs	r2, #0
 80002a2:	701a      	strb	r2, [r3, #0]
 80002a4:	68bb      	ldr	r3, [r7, #8]
 80002a6:	3301      	adds	r3, #1
 80002a8:	60bb      	str	r3, [r7, #8]
 80002aa:	68ba      	ldr	r2, [r7, #8]
 80002ac:	687b      	ldr	r3, [r7, #4]
 80002ae:	429a      	cmp	r2, r3
 80002b0:	d3f3      	bcc.n	800029a <Reset_Handler+0x50>
 80002b2:	4b0c      	ldr	r3, [pc, #48]	; (80002e4 <Reset_Handler+0x9a>)
 80002b4:	681b      	ldr	r3, [r3, #0]
 80002b6:	4a0b      	ldr	r2, [pc, #44]	; (80002e4 <Reset_Handler+0x9a>)
 80002b8:	f443 0370 	orr.w	r3, r3, #15728640	; 0xf00000
 80002bc:	6013      	str	r3, [r2, #0]
 80002be:	f007 fe75 	bl	8007fac <__libc_init_array>
 80002c2:	f000 f981 	bl	80005c8 <main>
 80002c6:	bf00      	nop
 80002c8:	3718      	adds	r7, #24
 80002ca:	46bd      	mov	sp, r7
 80002cc:	bd80      	pop	{r7, pc}
 80002ce:	bf00      	nop
 80002d0:	20000078 	andcs	r0, r0, r8, ror r0
 80002d4:	20000000 	andcs	r0, r0, r0
 80002d8:	080080cc 	stmdaeq	r0, {r2, r3, r6, r7, pc}
 80002dc:	20012f28 	andcs	r2, r1, r8, lsr #30
 80002e0:	20000080 	andcs	r0, r0, r0, lsl #1
 80002e4:	e000ed88 	and	lr, r0, r8, lsl #27
 80002e8:	20018000 	andcs	r8, r1, r0

080002ec <sysclk_init>:
 80002ec:	b480      	push	{r7}
 80002ee:	b083      	sub	sp, #12
 80002f0:	af00      	add	r7, sp, #0
 80002f2:	4b15      	ldr	r3, [pc, #84]	; (8000348 <sysclk_init+0x5c>)
 80002f4:	681b      	ldr	r3, [r3, #0]
 80002f6:	4a14      	ldr	r2, [pc, #80]	; (8000348 <sysclk_init+0x5c>)
 80002f8:	f043 0302 	orr.w	r3, r3, #2
 80002fc:	6013      	str	r3, [r2, #0]
 80002fe:	4b13      	ldr	r3, [pc, #76]	; (800034c <sysclk_init+0x60>)
 8000300:	681b      	ldr	r3, [r3, #0]
 8000302:	4a12      	ldr	r2, [pc, #72]	; (800034c <sysclk_init+0x60>)
 8000304:	f043 0308 	orr.w	r3, r3, #8
 8000308:	6013      	str	r3, [r2, #0]
 800030a:	4b10      	ldr	r3, [pc, #64]	; (800034c <sysclk_init+0x60>)
 800030c:	681b      	ldr	r3, [r3, #0]
 800030e:	4a0f      	ldr	r2, [pc, #60]	; (800034c <sysclk_init+0x60>)
 8000310:	f023 03f0 	bic.w	r3, r3, #240	; 0xf0
 8000314:	6013      	str	r3, [r2, #0]
 8000316:	4b0d      	ldr	r3, [pc, #52]	; (800034c <sysclk_init+0x60>)
 8000318:	681b      	ldr	r3, [r3, #0]
 800031a:	4a0c      	ldr	r2, [pc, #48]	; (800034c <sysclk_init+0x60>)
 800031c:	f043 03b0 	orr.w	r3, r3, #176	; 0xb0
 8000320:	6013      	str	r3, [r2, #0]
 8000322:	2300      	movs	r3, #0
 8000324:	71fb      	strb	r3, [r7, #7]
 8000326:	e004      	b.n	8000332 <sysclk_init+0x46>
 8000328:	79fb      	ldrb	r3, [r7, #7]
 800032a:	b2db      	uxtb	r3, r3
 800032c:	3301      	adds	r3, #1
 800032e:	b2db      	uxtb	r3, r3
 8000330:	71fb      	strb	r3, [r7, #7]
 8000332:	79fb      	ldrb	r3, [r7, #7]
 8000334:	b2db      	uxtb	r3, r3
 8000336:	2b07      	cmp	r3, #7
 8000338:	d9f6      	bls.n	8000328 <sysclk_init+0x3c>
 800033a:	bf00      	nop
 800033c:	bf00      	nop
 800033e:	370c      	adds	r7, #12
 8000340:	46bd      	mov	sp, r7
 8000342:	f85d 7b04 	ldr.w	r7, [sp], #4
 8000346:	4770      	bx	lr
 8000348:	40022000 	andmi	r2, r2, r0
 800034c:	40021000 	andmi	r1, r2, r0

08000350 <hsi_init>:
 8000350:	b480      	push	{r7}
 8000352:	af00      	add	r7, sp, #0
 8000354:	4b0c      	ldr	r3, [pc, #48]	; (8000388 <hsi_init+0x38>)
 8000356:	681b      	ldr	r3, [r3, #0]
 8000358:	4a0b      	ldr	r2, [pc, #44]	; (8000388 <hsi_init+0x38>)
 800035a:	f443 7300 	orr.w	r3, r3, #512	; 0x200
 800035e:	6013      	str	r3, [r2, #0]
 8000360:	4b09      	ldr	r3, [pc, #36]	; (8000388 <hsi_init+0x38>)
 8000362:	681b      	ldr	r3, [r3, #0]
 8000364:	4a08      	ldr	r2, [pc, #32]	; (8000388 <hsi_init+0x38>)
 8000366:	f443 7380 	orr.w	r3, r3, #256	; 0x100
 800036a:	6013      	str	r3, [r2, #0]
 800036c:	bf00      	nop
 800036e:	4b06      	ldr	r3, [pc, #24]	; (8000388 <hsi_init+0x38>)
 8000370:	681b      	ldr	r3, [r3, #0]
 8000372:	0a9b      	lsrs	r3, r3, #10
 8000374:	f003 0301 	and.w	r3, r3, #1
 8000378:	2b01      	cmp	r3, #1
 800037a:	d1f8      	bne.n	800036e <hsi_init+0x1e>
 800037c:	bf00      	nop
 800037e:	bf00      	nop
 8000380:	46bd      	mov	sp, r7
 8000382:	f85d 7b04 	ldr.w	r7, [sp], #4
 8000386:	4770      	bx	lr
 8000388:	40021000 	andmi	r1, r2, r0

0800038c <peripheral_clk_init>:
 800038c:	b480      	push	{r7}
 800038e:	b083      	sub	sp, #12
 8000390:	af00      	add	r7, sp, #0
 8000392:	4b0f      	ldr	r3, [pc, #60]	; (80003d0 <peripheral_clk_init+0x44>)
 8000394:	681b      	ldr	r3, [r3, #0]
 8000396:	4a0e      	ldr	r2, [pc, #56]	; (80003d0 <peripheral_clk_init+0x44>)
 8000398:	f043 0301 	orr.w	r3, r3, #1
 800039c:	6013      	str	r3, [r2, #0]
 800039e:	4b0d      	ldr	r3, [pc, #52]	; (80003d4 <peripheral_clk_init+0x48>)
 80003a0:	681b      	ldr	r3, [r3, #0]
 80003a2:	4a0c      	ldr	r2, [pc, #48]	; (80003d4 <peripheral_clk_init+0x48>)
 80003a4:	f043 0301 	orr.w	r3, r3, #1
 80003a8:	6013      	str	r3, [r2, #0]
 80003aa:	2300      	movs	r3, #0
 80003ac:	71fb      	strb	r3, [r7, #7]
 80003ae:	e004      	b.n	80003ba <peripheral_clk_init+0x2e>
 80003b0:	79fb      	ldrb	r3, [r7, #7]
 80003b2:	b2db      	uxtb	r3, r3
 80003b4:	3301      	adds	r3, #1
 80003b6:	b2db      	uxtb	r3, r3
 80003b8:	71fb      	strb	r3, [r7, #7]
 80003ba:	79fb      	ldrb	r3, [r7, #7]
 80003bc:	b2db      	uxtb	r3, r3
 80003be:	2b07      	cmp	r3, #7
 80003c0:	d9f6      	bls.n	80003b0 <peripheral_clk_init+0x24>
 80003c2:	bf00      	nop
 80003c4:	bf00      	nop
 80003c6:	370c      	adds	r7, #12
 80003c8:	46bd      	mov	sp, r7
 80003ca:	f85d 7b04 	ldr.w	r7, [sp], #4
 80003ce:	4770      	bx	lr
 80003d0:	4002104c 	andmi	r1, r2, ip, asr #32
 80003d4:	40021058 	andmi	r1, r2, r8, asr r0

080003d8 <exti_init>:
 80003d8:	b480      	push	{r7}
 80003da:	af00      	add	r7, sp, #0
 80003dc:	4b0b      	ldr	r3, [pc, #44]	; (800040c <exti_init+0x34>)
 80003de:	681b      	ldr	r3, [r3, #0]
 80003e0:	4a0a      	ldr	r2, [pc, #40]	; (800040c <exti_init+0x34>)
 80003e2:	f443 5300 	orr.w	r3, r3, #8192	; 0x2000
 80003e6:	6013      	str	r3, [r2, #0]
 80003e8:	4b09      	ldr	r3, [pc, #36]	; (8000410 <exti_init+0x38>)
 80003ea:	681b      	ldr	r3, [r3, #0]
 80003ec:	4a08      	ldr	r2, [pc, #32]	; (8000410 <exti_init+0x38>)
 80003ee:	f423 5300 	bic.w	r3, r3, #8192	; 0x2000
 80003f2:	6013      	str	r3, [r2, #0]
 80003f4:	4b07      	ldr	r3, [pc, #28]	; (8000414 <exti_init+0x3c>)
 80003f6:	681b      	ldr	r3, [r3, #0]
 80003f8:	4a06      	ldr	r2, [pc, #24]	; (8000414 <exti_init+0x3c>)
 80003fa:	f043 0320 	orr.w	r3, r3, #32
 80003fe:	6013      	str	r3, [r2, #0]
 8000400:	bf00      	nop
 8000402:	46bd      	mov	sp, r7
 8000404:	f85d 7b04 	ldr.w	r7, [sp], #4
 8000408:	4770      	bx	lr
 800040a:	bf00      	nop
 800040c:	4001040c 	andmi	r0, r1, ip, lsl #8
 8000410:	40010408 	andmi	r0, r1, r8, lsl #8
 8000414:	40010014 	andmi	r0, r1, r4, lsl r0

08000418 <exti_enable>:
 8000418:	b480      	push	{r7}
 800041a:	af00      	add	r7, sp, #0
 800041c:	4b05      	ldr	r3, [pc, #20]	; (8000434 <exti_enable+0x1c>)
 800041e:	681b      	ldr	r3, [r3, #0]
 8000420:	4a04      	ldr	r2, [pc, #16]	; (8000434 <exti_enable+0x1c>)
 8000422:	f443 5300 	orr.w	r3, r3, #8192	; 0x2000
 8000426:	6013      	str	r3, [r2, #0]
 8000428:	bf00      	nop
 800042a:	46bd      	mov	sp, r7
 800042c:	f85d 7b04 	ldr.w	r7, [sp], #4
 8000430:	4770      	bx	lr
 8000432:	bf00      	nop
 8000434:	40010400 	andmi	r0, r1, r0, lsl #8

08000438 <exti_disable>:
 8000438:	b480      	push	{r7}
 800043a:	af00      	add	r7, sp, #0
 800043c:	4b05      	ldr	r3, [pc, #20]	; (8000454 <exti_disable+0x1c>)
 800043e:	681b      	ldr	r3, [r3, #0]
 8000440:	4a04      	ldr	r2, [pc, #16]	; (8000454 <exti_disable+0x1c>)
 8000442:	f423 5300 	bic.w	r3, r3, #8192	; 0x2000
 8000446:	6013      	str	r3, [r2, #0]
 8000448:	bf00      	nop
 800044a:	46bd      	mov	sp, r7
 800044c:	f85d 7b04 	ldr.w	r7, [sp], #4
 8000450:	4770      	bx	lr
 8000452:	bf00      	nop
 8000454:	40010400 	andmi	r0, r1, r0, lsl #8

08000458 <EXTI15_10_IRQHandler>:
 8000458:	b580      	push	{r7, lr}
 800045a:	af00      	add	r7, sp, #0
 800045c:	f000 f92c 	bl	80006b8 <nvic_disable>
 8000460:	f000 f880 	bl	8000564 <gpio_led_toggle>
 8000464:	4b04      	ldr	r3, [pc, #16]	; (8000478 <EXTI15_10_IRQHandler+0x20>)
 8000466:	681b      	ldr	r3, [r3, #0]
 8000468:	4a03      	ldr	r2, [pc, #12]	; (8000478 <EXTI15_10_IRQHandler+0x20>)
 800046a:	f443 5300 	orr.w	r3, r3, #8192	; 0x2000
 800046e:	6013      	str	r3, [r2, #0]
 8000470:	f000 f90a 	bl	8000688 <nvic_enable>
 8000474:	bf00      	nop
 8000476:	bd80      	pop	{r7, pc}
 8000478:	40010414 	andmi	r0, r1, r4, lsl r4

0800047c <gpio_button_init>:
 800047c:	b480      	push	{r7}
 800047e:	af00      	add	r7, sp, #0
 8000480:	4b0b      	ldr	r3, [pc, #44]	; (80004b0 <gpio_button_init+0x34>)
 8000482:	681b      	ldr	r3, [r3, #0]
 8000484:	4a0a      	ldr	r2, [pc, #40]	; (80004b0 <gpio_button_init+0x34>)
 8000486:	f023 6340 	bic.w	r3, r3, #201326592	; 0xc000000
 800048a:	6013      	str	r3, [r2, #0]
 800048c:	4b09      	ldr	r3, [pc, #36]	; (80004b4 <gpio_button_init+0x38>)
 800048e:	681b      	ldr	r3, [r3, #0]
 8000490:	4a08      	ldr	r2, [pc, #32]	; (80004b4 <gpio_button_init+0x38>)
 8000492:	f023 6340 	bic.w	r3, r3, #201326592	; 0xc000000
 8000496:	6013      	str	r3, [r2, #0]
 8000498:	4b06      	ldr	r3, [pc, #24]	; (80004b4 <gpio_button_init+0x38>)
 800049a:	681b      	ldr	r3, [r3, #0]
 800049c:	4a05      	ldr	r2, [pc, #20]	; (80004b4 <gpio_button_init+0x38>)
 800049e:	f043 6380 	orr.w	r3, r3, #67108864	; 0x4000000
 80004a2:	6013      	str	r3, [r2, #0]
 80004a4:	bf00      	nop
 80004a6:	46bd      	mov	sp, r7
 80004a8:	f85d 7b04 	ldr.w	r7, [sp], #4
 80004ac:	4770      	bx	lr
 80004ae:	bf00      	nop
 80004b0:	48000800 	stmdami	r0, {fp}
 80004b4:	4800080c 	stmdami	r0, {r2, r3, fp}

080004b8 <gpio_button_poll>:
 80004b8:	b480      	push	{r7}
 80004ba:	b083      	sub	sp, #12
 80004bc:	af00      	add	r7, sp, #0
 80004be:	4603      	mov	r3, r0
 80004c0:	71fb      	strb	r3, [r7, #7]
 80004c2:	4b07      	ldr	r3, [pc, #28]	; (80004e0 <gpio_button_poll+0x28>)
 80004c4:	681b      	ldr	r3, [r3, #0]
 80004c6:	0b5b      	lsrs	r3, r3, #13
 80004c8:	b2db      	uxtb	r3, r3
 80004ca:	f003 0301 	and.w	r3, r3, #1
 80004ce:	71fb      	strb	r3, [r7, #7]
 80004d0:	79fb      	ldrb	r3, [r7, #7]
 80004d2:	4618      	mov	r0, r3
 80004d4:	370c      	adds	r7, #12
 80004d6:	46bd      	mov	sp, r7
 80004d8:	f85d 7b04 	ldr.w	r7, [sp], #4
 80004dc:	4770      	bx	lr
 80004de:	bf00      	nop
 80004e0:	48000810 	stmdami	r0, {r4, fp}

080004e4 <gpio_led_init>:
 80004e4:	b480      	push	{r7}
 80004e6:	af00      	add	r7, sp, #0
 80004e8:	f04f 4390 	mov.w	r3, #1207959552	; 0x48000000
 80004ec:	681b      	ldr	r3, [r3, #0]
 80004ee:	f04f 4290 	mov.w	r2, #1207959552	; 0x48000000
 80004f2:	f443 6380 	orr.w	r3, r3, #1024	; 0x400
 80004f6:	6013      	str	r3, [r2, #0]
 80004f8:	f04f 4390 	mov.w	r3, #1207959552	; 0x48000000
 80004fc:	681b      	ldr	r3, [r3, #0]
 80004fe:	f04f 4290 	mov.w	r2, #1207959552	; 0x48000000
 8000502:	f423 6300 	bic.w	r3, r3, #2048	; 0x800
 8000506:	6013      	str	r3, [r2, #0]
 8000508:	4b05      	ldr	r3, [pc, #20]	; (8000520 <gpio_led_init+0x3c>)
 800050a:	681b      	ldr	r3, [r3, #0]
 800050c:	4a04      	ldr	r2, [pc, #16]	; (8000520 <gpio_led_init+0x3c>)
 800050e:	f023 0320 	bic.w	r3, r3, #32
 8000512:	6013      	str	r3, [r2, #0]
 8000514:	bf00      	nop
 8000516:	46bd      	mov	sp, r7
 8000518:	f85d 7b04 	ldr.w	r7, [sp], #4
 800051c:	4770      	bx	lr
 800051e:	bf00      	nop
 8000520:	48000004 	stmdami	r0, {r2}

08000524 <gpio_led_on>:
 8000524:	b480      	push	{r7}
 8000526:	af00      	add	r7, sp, #0
 8000528:	4b05      	ldr	r3, [pc, #20]	; (8000540 <gpio_led_on+0x1c>)
 800052a:	681b      	ldr	r3, [r3, #0]
 800052c:	4a04      	ldr	r2, [pc, #16]	; (8000540 <gpio_led_on+0x1c>)
 800052e:	f043 0320 	orr.w	r3, r3, #32
 8000532:	6013      	str	r3, [r2, #0]
 8000534:	bf00      	nop
 8000536:	46bd      	mov	sp, r7
 8000538:	f85d 7b04 	ldr.w	r7, [sp], #4
 800053c:	4770      	bx	lr
 800053e:	bf00      	nop
 8000540:	48000014 	stmdami	r0, {r2, r4}

08000544 <gpio_led_off>:
 8000544:	b480      	push	{r7}
 8000546:	af00      	add	r7, sp, #0
 8000548:	4b05      	ldr	r3, [pc, #20]	; (8000560 <gpio_led_off+0x1c>)
 800054a:	681b      	ldr	r3, [r3, #0]
 800054c:	4a04      	ldr	r2, [pc, #16]	; (8000560 <gpio_led_off+0x1c>)
 800054e:	f023 0320 	bic.w	r3, r3, #32
 8000552:	6013      	str	r3, [r2, #0]
 8000554:	bf00      	nop
 8000556:	46bd      	mov	sp, r7
 8000558:	f85d 7b04 	ldr.w	r7, [sp], #4
 800055c:	4770      	bx	lr
 800055e:	bf00      	nop
 8000560:	48000014 	stmdami	r0, {r2, r4}

08000564 <gpio_led_toggle>:
 8000564:	b480      	push	{r7}
 8000566:	af00      	add	r7, sp, #0
 8000568:	4b05      	ldr	r3, [pc, #20]	; (8000580 <gpio_led_toggle+0x1c>)
 800056a:	681b      	ldr	r3, [r3, #0]
 800056c:	4a04      	ldr	r2, [pc, #16]	; (8000580 <gpio_led_toggle+0x1c>)
 800056e:	f083 0320 	eor.w	r3, r3, #32
 8000572:	6013      	str	r3, [r2, #0]
 8000574:	bf00      	nop
 8000576:	46bd      	mov	sp, r7
 8000578:	f85d 7b04 	ldr.w	r7, [sp], #4
 800057c:	4770      	bx	lr
 800057e:	bf00      	nop
 8000580:	48000014 	stmdami	r0, {r2, r4}

08000584 <hardware_init>:
 8000584:	b580      	push	{r7, lr}
 8000586:	af00      	add	r7, sp, #0
 8000588:	f7ff feb0 	bl	80002ec <sysclk_init>
 800058c:	f7ff fefe 	bl	800038c <peripheral_clk_init>
 8000590:	f000 fa02 	bl	8000998 <systick_init>
 8000594:	f000 fa24 	bl	80009e0 <systick_enable>
 8000598:	4b0a      	ldr	r3, [pc, #40]	; (80005c4 <hardware_init+0x40>)
 800059a:	681b      	ldr	r3, [r3, #0]
 800059c:	4a09      	ldr	r2, [pc, #36]	; (80005c4 <hardware_init+0x40>)
 800059e:	f043 63bf 	orr.w	r3, r3, #100139008	; 0x5f80000
 80005a2:	f443 3300 	orr.w	r3, r3, #131072	; 0x20000
 80005a6:	6013      	str	r3, [r2, #0]
 80005a8:	4b06      	ldr	r3, [pc, #24]	; (80005c4 <hardware_init+0x40>)
 80005aa:	681b      	ldr	r3, [r3, #0]
 80005ac:	4a05      	ldr	r2, [pc, #20]	; (80005c4 <hardware_init+0x40>)
 80005ae:	f423 6380 	bic.w	r3, r3, #1024	; 0x400
 80005b2:	6013      	str	r3, [r2, #0]
 80005b4:	f7ff ff96 	bl	80004e4 <gpio_led_init>
 80005b8:	f000 fa32 	bl	8000a20 <timer2_init>
 80005bc:	f000 fa54 	bl	8000a68 <timer2_enable>
 80005c0:	bf00      	nop
 80005c2:	bd80      	pop	{r7, pc}
 80005c4:	e000e014 	and	lr, r0, r4, lsl r0

080005c8 <main>:
 80005c8:	b580      	push	{r7, lr}
 80005ca:	b086      	sub	sp, #24
 80005cc:	af02      	add	r7, sp, #8
 80005ce:	f7ff ffd9 	bl	8000584 <hardware_init>
 80005d2:	f7ff ffa7 	bl	8000524 <gpio_led_on>
 80005d6:	481d      	ldr	r0, [pc, #116]	; (800064c <main+0x84>)
 80005d8:	f000 fa7c 	bl	8000ad4 <timer2_blocking_delay>
 80005dc:	f7ff ffb2 	bl	8000544 <gpio_led_off>
 80005e0:	2300      	movs	r3, #0
 80005e2:	9301      	str	r3, [sp, #4]
 80005e4:	2301      	movs	r3, #1
 80005e6:	9300      	str	r3, [sp, #0]
 80005e8:	2300      	movs	r3, #0
 80005ea:	2282      	movs	r2, #130	; 0x82
 80005ec:	4918      	ldr	r1, [pc, #96]	; (8000650 <main+0x88>)
 80005ee:	4819      	ldr	r0, [pc, #100]	; (8000654 <main+0x8c>)
 80005f0:	f003 ff2e 	bl	8004450 <xTaskCreate>
 80005f4:	60f8      	str	r0, [r7, #12]
 80005f6:	68fb      	ldr	r3, [r7, #12]
 80005f8:	2b01      	cmp	r3, #1
 80005fa:	d00a      	beq.n	8000612 <main+0x4a>
 80005fc:	f04f 0350 	mov.w	r3, #80	; 0x50
 8000600:	f383 8811 	msr	BASEPRI, r3
 8000604:	f3bf 8f6f 	isb	sy
 8000608:	f3bf 8f4f 	dsb	sy
 800060c:	60bb      	str	r3, [r7, #8]
 800060e:	bf00      	nop
 8000610:	e7fe      	b.n	8000610 <main+0x48>
 8000612:	2300      	movs	r3, #0
 8000614:	9301      	str	r3, [sp, #4]
 8000616:	2301      	movs	r3, #1
 8000618:	9300      	str	r3, [sp, #0]
 800061a:	2300      	movs	r3, #0
 800061c:	2282      	movs	r2, #130	; 0x82
 800061e:	490e      	ldr	r1, [pc, #56]	; (8000658 <main+0x90>)
 8000620:	480e      	ldr	r0, [pc, #56]	; (800065c <main+0x94>)
 8000622:	f003 ff15 	bl	8004450 <xTaskCreate>
 8000626:	60f8      	str	r0, [r7, #12]
 8000628:	68fb      	ldr	r3, [r7, #12]
 800062a:	2b01      	cmp	r3, #1
 800062c:	d00a      	beq.n	8000644 <main+0x7c>
 800062e:	f04f 0350 	mov.w	r3, #80	; 0x50
 8000632:	f383 8811 	msr	BASEPRI, r3
 8000636:	f3bf 8f6f 	isb	sy
 800063a:	f3bf 8f4f 	dsb	sy
 800063e:	607b      	str	r3, [r7, #4]
 8000640:	bf00      	nop
 8000642:	e7fe      	b.n	8000642 <main+0x7a>
 8000644:	f004 fe4a 	bl	80052dc <vTaskStartScheduler>
 8000648:	e7fe      	b.n	8000648 <main+0x80>
 800064a:	bf00      	nop
 800064c:	000f4240 	andeq	r4, pc, r0, asr #4
 8000650:	08008068 	stmdaeq	r0, {r3, r5, r6, pc}
 8000654:	08000661 	stmdaeq	r0, {r0, r5, r6, r9, sl}
 8000658:	08008070 	stmdaeq	r0, {r4, r5, r6, pc}
 800065c:	08000675 	stmdaeq	r0, {r0, r2, r4, r5, r6, r9, sl}

08000660 <task1_handler>:
 8000660:	b580      	push	{r7, lr}
 8000662:	b082      	sub	sp, #8
 8000664:	af00      	add	r7, sp, #0
 8000666:	6078      	str	r0, [r7, #4]
 8000668:	f7ff ff5c 	bl	8000524 <gpio_led_on>
 800066c:	2032      	movs	r0, #50	; 0x32
 800066e:	f004 f967 	bl	8004940 <vTaskDelay>
 8000672:	e7f9      	b.n	8000668 <task1_handler+0x8>

08000674 <task2_handler>:
 8000674:	b580      	push	{r7, lr}
 8000676:	b082      	sub	sp, #8
 8000678:	af00      	add	r7, sp, #0
 800067a:	6078      	str	r0, [r7, #4]
 800067c:	f7ff ff62 	bl	8000544 <gpio_led_off>
 8000680:	2014      	movs	r0, #20
 8000682:	f004 f95d 	bl	8004940 <vTaskDelay>
 8000686:	e7f9      	b.n	800067c <task2_handler+0x8>

08000688 <nvic_enable>:
 8000688:	b480      	push	{r7}
 800068a:	af00      	add	r7, sp, #0
 800068c:	4b08      	ldr	r3, [pc, #32]	; (80006b0 <nvic_enable+0x28>)
 800068e:	681b      	ldr	r3, [r3, #0]
 8000690:	4a07      	ldr	r2, [pc, #28]	; (80006b0 <nvic_enable+0x28>)
 8000692:	f443 7380 	orr.w	r3, r3, #256	; 0x100
 8000696:	6013      	str	r3, [r2, #0]
 8000698:	4b06      	ldr	r3, [pc, #24]	; (80006b4 <nvic_enable+0x2c>)
 800069a:	681b      	ldr	r3, [r3, #0]
 800069c:	4a05      	ldr	r2, [pc, #20]	; (80006b4 <nvic_enable+0x2c>)
 800069e:	f043 5380 	orr.w	r3, r3, #268435456	; 0x10000000
 80006a2:	6013      	str	r3, [r2, #0]
 80006a4:	bf00      	nop
 80006a6:	46bd      	mov	sp, r7
 80006a8:	f85d 7b04 	ldr.w	r7, [sp], #4
 80006ac:	4770      	bx	lr
 80006ae:	bf00      	nop
 80006b0:	e000e104 	and	lr, r0, r4, lsl #2
 80006b4:	e000e100 	and	lr, r0, r0, lsl #2

080006b8 <nvic_disable>:
 80006b8:	b480      	push	{r7}
 80006ba:	af00      	add	r7, sp, #0
 80006bc:	4b08      	ldr	r3, [pc, #32]	; (80006e0 <nvic_disable+0x28>)
 80006be:	681b      	ldr	r3, [r3, #0]
 80006c0:	4a07      	ldr	r2, [pc, #28]	; (80006e0 <nvic_disable+0x28>)
 80006c2:	f443 7380 	orr.w	r3, r3, #256	; 0x100
 80006c6:	6013      	str	r3, [r2, #0]
 80006c8:	4b06      	ldr	r3, [pc, #24]	; (80006e4 <nvic_disable+0x2c>)
 80006ca:	681b      	ldr	r3, [r3, #0]
 80006cc:	4a05      	ldr	r2, [pc, #20]	; (80006e4 <nvic_disable+0x2c>)
 80006ce:	f043 5380 	orr.w	r3, r3, #268435456	; 0x10000000
 80006d2:	6013      	str	r3, [r2, #0]
 80006d4:	bf00      	nop
 80006d6:	46bd      	mov	sp, r7
 80006d8:	f85d 7b04 	ldr.w	r7, [sp], #4
 80006dc:	4770      	bx	lr
 80006de:	bf00      	nop
 80006e0:	e000e184 	and	lr, r0, r4, lsl #3
 80006e4:	e000e180 	and	lr, r0, r0, lsl #3

080006e8 <nvic_priority>:
 80006e8:	b480      	push	{r7}
 80006ea:	af00      	add	r7, sp, #0
 80006ec:	4b08      	ldr	r3, [pc, #32]	; (8000710 <nvic_priority+0x28>)
 80006ee:	681b      	ldr	r3, [r3, #0]
 80006f0:	4a07      	ldr	r2, [pc, #28]	; (8000710 <nvic_priority+0x28>)
 80006f2:	f043 03f0 	orr.w	r3, r3, #240	; 0xf0
 80006f6:	6013      	str	r3, [r2, #0]
 80006f8:	4b06      	ldr	r3, [pc, #24]	; (8000714 <nvic_priority+0x2c>)
 80006fa:	681b      	ldr	r3, [r3, #0]
 80006fc:	4a05      	ldr	r2, [pc, #20]	; (8000714 <nvic_priority+0x2c>)
 80006fe:	f043 030f 	orr.w	r3, r3, #15
 8000702:	6013      	str	r3, [r2, #0]
 8000704:	bf00      	nop
 8000706:	46bd      	mov	sp, r7
 8000708:	f85d 7b04 	ldr.w	r7, [sp], #4
 800070c:	4770      	bx	lr
 800070e:	bf00      	nop
 8000710:	e000e428 	and	lr, r0, r8, lsr #8
 8000714:	e000e41c 	and	lr, r0, ip, lsl r4

08000718 <initialise_monitor_handles>:
 8000718:	b480      	push	{r7}
 800071a:	af00      	add	r7, sp, #0
 800071c:	bf00      	nop
 800071e:	46bd      	mov	sp, r7
 8000720:	f85d 7b04 	ldr.w	r7, [sp], #4
 8000724:	4770      	bx	lr

08000726 <_getpid>:
 8000726:	b480      	push	{r7}
 8000728:	af00      	add	r7, sp, #0
 800072a:	2301      	movs	r3, #1
 800072c:	4618      	mov	r0, r3
 800072e:	46bd      	mov	sp, r7
 8000730:	f85d 7b04 	ldr.w	r7, [sp], #4
 8000734:	4770      	bx	lr

08000736 <_kill>:
 8000736:	b580      	push	{r7, lr}
 8000738:	b082      	sub	sp, #8
 800073a:	af00      	add	r7, sp, #0
 800073c:	6078      	str	r0, [r7, #4]
 800073e:	6039      	str	r1, [r7, #0]
 8000740:	f007 fc60 	bl	8008004 <__errno>
 8000744:	4603      	mov	r3, r0
 8000746:	2216      	movs	r2, #22
 8000748:	601a      	str	r2, [r3, #0]
 800074a:	f04f 33ff 	mov.w	r3, #4294967295	; 0xffffffff
 800074e:	4618      	mov	r0, r3
 8000750:	3708      	adds	r7, #8
 8000752:	46bd      	mov	sp, r7
 8000754:	bd80      	pop	{r7, pc}

08000756 <_exit>:
 8000756:	b580      	push	{r7, lr}
 8000758:	b082      	sub	sp, #8
 800075a:	af00      	add	r7, sp, #0
 800075c:	6078      	str	r0, [r7, #4]
 800075e:	f04f 31ff 	mov.w	r1, #4294967295	; 0xffffffff
 8000762:	6878      	ldr	r0, [r7, #4]
 8000764:	f7ff ffe7 	bl	8000736 <_kill>
 8000768:	e7fe      	b.n	8000768 <_exit+0x12>

0800076a <_read>:
 800076a:	b580      	push	{r7, lr}
 800076c:	b086      	sub	sp, #24
 800076e:	af00      	add	r7, sp, #0
 8000770:	60f8      	str	r0, [r7, #12]
 8000772:	60b9      	str	r1, [r7, #8]
 8000774:	607a      	str	r2, [r7, #4]
 8000776:	2300      	movs	r3, #0
 8000778:	617b      	str	r3, [r7, #20]
 800077a:	e00a      	b.n	8000792 <_read+0x28>
 800077c:	f3af 8000 	nop.w
 8000780:	4601      	mov	r1, r0
 8000782:	68bb      	ldr	r3, [r7, #8]
 8000784:	1c5a      	adds	r2, r3, #1
 8000786:	60ba      	str	r2, [r7, #8]
 8000788:	b2ca      	uxtb	r2, r1
 800078a:	701a      	strb	r2, [r3, #0]
 800078c:	697b      	ldr	r3, [r7, #20]
 800078e:	3301      	adds	r3, #1
 8000790:	617b      	str	r3, [r7, #20]
 8000792:	697a      	ldr	r2, [r7, #20]
 8000794:	687b      	ldr	r3, [r7, #4]
 8000796:	429a      	cmp	r2, r3
 8000798:	dbf0      	blt.n	800077c <_read+0x12>
 800079a:	687b      	ldr	r3, [r7, #4]
 800079c:	4618      	mov	r0, r3
 800079e:	3718      	adds	r7, #24
 80007a0:	46bd      	mov	sp, r7
 80007a2:	bd80      	pop	{r7, pc}

080007a4 <_write>:
 80007a4:	b580      	push	{r7, lr}
 80007a6:	b086      	sub	sp, #24
 80007a8:	af00      	add	r7, sp, #0
 80007aa:	60f8      	str	r0, [r7, #12]
 80007ac:	60b9      	str	r1, [r7, #8]
 80007ae:	607a      	str	r2, [r7, #4]
 80007b0:	2300      	movs	r3, #0
 80007b2:	617b      	str	r3, [r7, #20]
 80007b4:	e009      	b.n	80007ca <_write+0x26>
 80007b6:	68bb      	ldr	r3, [r7, #8]
 80007b8:	1c5a      	adds	r2, r3, #1
 80007ba:	60ba      	str	r2, [r7, #8]
 80007bc:	781b      	ldrb	r3, [r3, #0]
 80007be:	4618      	mov	r0, r3
 80007c0:	f3af 8000 	nop.w
 80007c4:	697b      	ldr	r3, [r7, #20]
 80007c6:	3301      	adds	r3, #1
 80007c8:	617b      	str	r3, [r7, #20]
 80007ca:	697a      	ldr	r2, [r7, #20]
 80007cc:	687b      	ldr	r3, [r7, #4]
 80007ce:	429a      	cmp	r2, r3
 80007d0:	dbf1      	blt.n	80007b6 <_write+0x12>
 80007d2:	687b      	ldr	r3, [r7, #4]
 80007d4:	4618      	mov	r0, r3
 80007d6:	3718      	adds	r7, #24
 80007d8:	46bd      	mov	sp, r7
 80007da:	bd80      	pop	{r7, pc}

080007dc <_close>:
 80007dc:	b480      	push	{r7}
 80007de:	b083      	sub	sp, #12
 80007e0:	af00      	add	r7, sp, #0
 80007e2:	6078      	str	r0, [r7, #4]
 80007e4:	f04f 33ff 	mov.w	r3, #4294967295	; 0xffffffff
 80007e8:	4618      	mov	r0, r3
 80007ea:	370c      	adds	r7, #12
 80007ec:	46bd      	mov	sp, r7
 80007ee:	f85d 7b04 	ldr.w	r7, [sp], #4
 80007f2:	4770      	bx	lr

080007f4 <_fstat>:
 80007f4:	b480      	push	{r7}
 80007f6:	b083      	sub	sp, #12
 80007f8:	af00      	add	r7, sp, #0
 80007fa:	6078      	str	r0, [r7, #4]
 80007fc:	6039      	str	r1, [r7, #0]
 80007fe:	683b      	ldr	r3, [r7, #0]
 8000800:	f44f 5200 	mov.w	r2, #8192	; 0x2000
 8000804:	605a      	str	r2, [r3, #4]
 8000806:	2300      	movs	r3, #0
 8000808:	4618      	mov	r0, r3
 800080a:	370c      	adds	r7, #12
 800080c:	46bd      	mov	sp, r7
 800080e:	f85d 7b04 	ldr.w	r7, [sp], #4
 8000812:	4770      	bx	lr

08000814 <_isatty>:
 8000814:	b480      	push	{r7}
 8000816:	b083      	sub	sp, #12
 8000818:	af00      	add	r7, sp, #0
 800081a:	6078      	str	r0, [r7, #4]
 800081c:	2301      	movs	r3, #1
 800081e:	4618      	mov	r0, r3
 8000820:	370c      	adds	r7, #12
 8000822:	46bd      	mov	sp, r7
 8000824:	f85d 7b04 	ldr.w	r7, [sp], #4
 8000828:	4770      	bx	lr

0800082a <_lseek>:
 800082a:	b480      	push	{r7}
 800082c:	b085      	sub	sp, #20
 800082e:	af00      	add	r7, sp, #0
 8000830:	60f8      	str	r0, [r7, #12]
 8000832:	60b9      	str	r1, [r7, #8]
 8000834:	607a      	str	r2, [r7, #4]
 8000836:	2300      	movs	r3, #0
 8000838:	4618      	mov	r0, r3
 800083a:	3714      	adds	r7, #20
 800083c:	46bd      	mov	sp, r7
 800083e:	f85d 7b04 	ldr.w	r7, [sp], #4
 8000842:	4770      	bx	lr

08000844 <_open>:
 8000844:	b40e      	push	{r1, r2, r3}
 8000846:	b480      	push	{r7}
 8000848:	b082      	sub	sp, #8
 800084a:	af00      	add	r7, sp, #0
 800084c:	6078      	str	r0, [r7, #4]
 800084e:	f04f 33ff 	mov.w	r3, #4294967295	; 0xffffffff
 8000852:	4618      	mov	r0, r3
 8000854:	3708      	adds	r7, #8
 8000856:	46bd      	mov	sp, r7
 8000858:	f85d 7b04 	ldr.w	r7, [sp], #4
 800085c:	b003      	add	sp, #12
 800085e:	4770      	bx	lr

08000860 <_wait>:
 8000860:	b580      	push	{r7, lr}
 8000862:	b082      	sub	sp, #8
 8000864:	af00      	add	r7, sp, #0
 8000866:	6078      	str	r0, [r7, #4]
 8000868:	f007 fbcc 	bl	8008004 <__errno>
 800086c:	4603      	mov	r3, r0
 800086e:	220a      	movs	r2, #10
 8000870:	601a      	str	r2, [r3, #0]
 8000872:	f04f 33ff 	mov.w	r3, #4294967295	; 0xffffffff
 8000876:	4618      	mov	r0, r3
 8000878:	3708      	adds	r7, #8
 800087a:	46bd      	mov	sp, r7
 800087c:	bd80      	pop	{r7, pc}

0800087e <_unlink>:
 800087e:	b580      	push	{r7, lr}
 8000880:	b082      	sub	sp, #8
 8000882:	af00      	add	r7, sp, #0
 8000884:	6078      	str	r0, [r7, #4]
 8000886:	f007 fbbd 	bl	8008004 <__errno>
 800088a:	4603      	mov	r3, r0
 800088c:	2202      	movs	r2, #2
 800088e:	601a      	str	r2, [r3, #0]
 8000890:	f04f 33ff 	mov.w	r3, #4294967295	; 0xffffffff
 8000894:	4618      	mov	r0, r3
 8000896:	3708      	adds	r7, #8
 8000898:	46bd      	mov	sp, r7
 800089a:	bd80      	pop	{r7, pc}

0800089c <_times>:
 800089c:	b480      	push	{r7}
 800089e:	b083      	sub	sp, #12
 80008a0:	af00      	add	r7, sp, #0
 80008a2:	6078      	str	r0, [r7, #4]
 80008a4:	f04f 33ff 	mov.w	r3, #4294967295	; 0xffffffff
 80008a8:	4618      	mov	r0, r3
 80008aa:	370c      	adds	r7, #12
 80008ac:	46bd      	mov	sp, r7
 80008ae:	f85d 7b04 	ldr.w	r7, [sp], #4
 80008b2:	4770      	bx	lr

080008b4 <_stat>:
 80008b4:	b480      	push	{r7}
 80008b6:	b083      	sub	sp, #12
 80008b8:	af00      	add	r7, sp, #0
 80008ba:	6078      	str	r0, [r7, #4]
 80008bc:	6039      	str	r1, [r7, #0]
 80008be:	683b      	ldr	r3, [r7, #0]
 80008c0:	f44f 5200 	mov.w	r2, #8192	; 0x2000
 80008c4:	605a      	str	r2, [r3, #4]
 80008c6:	2300      	movs	r3, #0
 80008c8:	4618      	mov	r0, r3
 80008ca:	370c      	adds	r7, #12
 80008cc:	46bd      	mov	sp, r7
 80008ce:	f85d 7b04 	ldr.w	r7, [sp], #4
 80008d2:	4770      	bx	lr

080008d4 <_link>:
 80008d4:	b580      	push	{r7, lr}
 80008d6:	b082      	sub	sp, #8
 80008d8:	af00      	add	r7, sp, #0
 80008da:	6078      	str	r0, [r7, #4]
 80008dc:	6039      	str	r1, [r7, #0]
 80008de:	f007 fb91 	bl	8008004 <__errno>
 80008e2:	4603      	mov	r3, r0
 80008e4:	221f      	movs	r2, #31
 80008e6:	601a      	str	r2, [r3, #0]
 80008e8:	f04f 33ff 	mov.w	r3, #4294967295	; 0xffffffff
 80008ec:	4618      	mov	r0, r3
 80008ee:	3708      	adds	r7, #8
 80008f0:	46bd      	mov	sp, r7
 80008f2:	bd80      	pop	{r7, pc}

080008f4 <_fork>:
 80008f4:	b580      	push	{r7, lr}
 80008f6:	af00      	add	r7, sp, #0
 80008f8:	f007 fb84 	bl	8008004 <__errno>
 80008fc:	4603      	mov	r3, r0
 80008fe:	220b      	movs	r2, #11
 8000900:	601a      	str	r2, [r3, #0]
 8000902:	f04f 33ff 	mov.w	r3, #4294967295	; 0xffffffff
 8000906:	4618      	mov	r0, r3
 8000908:	bd80      	pop	{r7, pc}

0800090a <_execve>:
 800090a:	b580      	push	{r7, lr}
 800090c:	b084      	sub	sp, #16
 800090e:	af00      	add	r7, sp, #0
 8000910:	60f8      	str	r0, [r7, #12]
 8000912:	60b9      	str	r1, [r7, #8]
 8000914:	607a      	str	r2, [r7, #4]
 8000916:	f007 fb75 	bl	8008004 <__errno>
 800091a:	4603      	mov	r3, r0
 800091c:	220c      	movs	r2, #12
 800091e:	601a      	str	r2, [r3, #0]
 8000920:	f04f 33ff 	mov.w	r3, #4294967295	; 0xffffffff
 8000924:	4618      	mov	r0, r3
 8000926:	3710      	adds	r7, #16
 8000928:	46bd      	mov	sp, r7
 800092a:	bd80      	pop	{r7, pc}

0800092c <_sbrk>:
 800092c:	b580      	push	{r7, lr}
 800092e:	b086      	sub	sp, #24
 8000930:	af00      	add	r7, sp, #0
 8000932:	6078      	str	r0, [r7, #4]
 8000934:	4a14      	ldr	r2, [pc, #80]	; (8000988 <_sbrk+0x5c>)
 8000936:	4b15      	ldr	r3, [pc, #84]	; (800098c <_sbrk+0x60>)
 8000938:	1ad3      	subs	r3, r2, r3
 800093a:	617b      	str	r3, [r7, #20]
 800093c:	697b      	ldr	r3, [r7, #20]
 800093e:	613b      	str	r3, [r7, #16]
 8000940:	4b13      	ldr	r3, [pc, #76]	; (8000990 <_sbrk+0x64>)
 8000942:	681b      	ldr	r3, [r3, #0]
 8000944:	2b00      	cmp	r3, #0
 8000946:	d102      	bne.n	800094e <_sbrk+0x22>
 8000948:	4b11      	ldr	r3, [pc, #68]	; (8000990 <_sbrk+0x64>)
 800094a:	4a12      	ldr	r2, [pc, #72]	; (8000994 <_sbrk+0x68>)
 800094c:	601a      	str	r2, [r3, #0]
 800094e:	4b10      	ldr	r3, [pc, #64]	; (8000990 <_sbrk+0x64>)
 8000950:	681a      	ldr	r2, [r3, #0]
 8000952:	687b      	ldr	r3, [r7, #4]
 8000954:	4413      	add	r3, r2
 8000956:	693a      	ldr	r2, [r7, #16]
 8000958:	429a      	cmp	r2, r3
 800095a:	d207      	bcs.n	800096c <_sbrk+0x40>
 800095c:	f007 fb52 	bl	8008004 <__errno>
 8000960:	4603      	mov	r3, r0
 8000962:	220c      	movs	r2, #12
 8000964:	601a      	str	r2, [r3, #0]
 8000966:	f04f 33ff 	mov.w	r3, #4294967295	; 0xffffffff
 800096a:	e009      	b.n	8000980 <_sbrk+0x54>
 800096c:	4b08      	ldr	r3, [pc, #32]	; (8000990 <_sbrk+0x64>)
 800096e:	681b      	ldr	r3, [r3, #0]
 8000970:	60fb      	str	r3, [r7, #12]
 8000972:	4b07      	ldr	r3, [pc, #28]	; (8000990 <_sbrk+0x64>)
 8000974:	681a      	ldr	r2, [r3, #0]
 8000976:	687b      	ldr	r3, [r7, #4]
 8000978:	4413      	add	r3, r2
 800097a:	4a05      	ldr	r2, [pc, #20]	; (8000990 <_sbrk+0x64>)
 800097c:	6013      	str	r3, [r2, #0]
 800097e:	68fb      	ldr	r3, [r7, #12]
 8000980:	4618      	mov	r0, r3
 8000982:	3718      	adds	r7, #24
 8000984:	46bd      	mov	sp, r7
 8000986:	bd80      	pop	{r7, pc}
 8000988:	20018000 	andcs	r8, r1, r0
 800098c:	00000200 	andeq	r0, r0, r0, lsl #4
 8000990:	200000a0 	andcs	r0, r0, r0, lsr #1
 8000994:	20012f28 	andcs	r2, r1, r8, lsr #30

08000998 <systick_init>:
 8000998:	b480      	push	{r7}
 800099a:	af00      	add	r7, sp, #0
 800099c:	4b0c      	ldr	r3, [pc, #48]	; (80009d0 <systick_init+0x38>)
 800099e:	681b      	ldr	r3, [r3, #0]
 80009a0:	4a0b      	ldr	r2, [pc, #44]	; (80009d0 <systick_init+0x38>)
 80009a2:	f043 0304 	orr.w	r3, r3, #4
 80009a6:	6013      	str	r3, [r2, #0]
 80009a8:	4b09      	ldr	r3, [pc, #36]	; (80009d0 <systick_init+0x38>)
 80009aa:	681b      	ldr	r3, [r3, #0]
 80009ac:	4a08      	ldr	r2, [pc, #32]	; (80009d0 <systick_init+0x38>)
 80009ae:	f043 0302 	orr.w	r3, r3, #2
 80009b2:	6013      	str	r3, [r2, #0]
 80009b4:	4b07      	ldr	r3, [pc, #28]	; (80009d4 <systick_init+0x3c>)
 80009b6:	681b      	ldr	r3, [r3, #0]
 80009b8:	4a07      	ldr	r2, [pc, #28]	; (80009d8 <systick_init+0x40>)
 80009ba:	fba2 2303 	umull	r2, r3, r2, r3
 80009be:	099b      	lsrs	r3, r3, #6
 80009c0:	4a06      	ldr	r2, [pc, #24]	; (80009dc <systick_init+0x44>)
 80009c2:	3b01      	subs	r3, #1
 80009c4:	6013      	str	r3, [r2, #0]
 80009c6:	bf00      	nop
 80009c8:	46bd      	mov	sp, r7
 80009ca:	f85d 7b04 	ldr.w	r7, [sp], #4
 80009ce:	4770      	bx	lr
 80009d0:	e000e010 	and	lr, r0, r0, lsl r0
 80009d4:	20000008 	andcs	r0, r0, r8
 80009d8:	10624dd3 	ldrdne	r4, [r2], #-211	; 0xffffff2d	; <UNPREDICTABLE>
 80009dc:	e000e014 	and	lr, r0, r4, lsl r0

080009e0 <systick_enable>:
 80009e0:	b480      	push	{r7}
 80009e2:	af00      	add	r7, sp, #0
 80009e4:	4b05      	ldr	r3, [pc, #20]	; (80009fc <systick_enable+0x1c>)
 80009e6:	681b      	ldr	r3, [r3, #0]
 80009e8:	4a04      	ldr	r2, [pc, #16]	; (80009fc <systick_enable+0x1c>)
 80009ea:	f043 0301 	orr.w	r3, r3, #1
 80009ee:	6013      	str	r3, [r2, #0]
 80009f0:	bf00      	nop
 80009f2:	46bd      	mov	sp, r7
 80009f4:	f85d 7b04 	ldr.w	r7, [sp], #4
 80009f8:	4770      	bx	lr
 80009fa:	bf00      	nop
 80009fc:	e000e010 	and	lr, r0, r0, lsl r0

08000a00 <systick_disable>:
 8000a00:	b480      	push	{r7}
 8000a02:	af00      	add	r7, sp, #0
 8000a04:	4b05      	ldr	r3, [pc, #20]	; (8000a1c <systick_disable+0x1c>)
 8000a06:	681b      	ldr	r3, [r3, #0]
 8000a08:	4a04      	ldr	r2, [pc, #16]	; (8000a1c <systick_disable+0x1c>)
 8000a0a:	f023 0301 	bic.w	r3, r3, #1
 8000a0e:	6013      	str	r3, [r2, #0]
 8000a10:	bf00      	nop
 8000a12:	46bd      	mov	sp, r7
 8000a14:	f85d 7b04 	ldr.w	r7, [sp], #4
 8000a18:	4770      	bx	lr
 8000a1a:	bf00      	nop
 8000a1c:	e000e010 	and	lr, r0, r0, lsl r0

08000a20 <timer2_init>:
 8000a20:	b480      	push	{r7}
 8000a22:	af00      	add	r7, sp, #0
 8000a24:	f04f 4380 	mov.w	r3, #1073741824	; 0x40000000
 8000a28:	681b      	ldr	r3, [r3, #0]
 8000a2a:	f04f 4280 	mov.w	r2, #1073741824	; 0x40000000
 8000a2e:	f043 0380 	orr.w	r3, r3, #128	; 0x80
 8000a32:	6013      	str	r3, [r2, #0]
 8000a34:	4b08      	ldr	r3, [pc, #32]	; (8000a58 <timer2_init+0x38>)
 8000a36:	222f      	movs	r2, #47	; 0x2f
 8000a38:	601a      	str	r2, [r3, #0]
 8000a3a:	4b08      	ldr	r3, [pc, #32]	; (8000a5c <timer2_init+0x3c>)
 8000a3c:	4a08      	ldr	r2, [pc, #32]	; (8000a60 <timer2_init+0x40>)
 8000a3e:	601a      	str	r2, [r3, #0]
 8000a40:	4b08      	ldr	r3, [pc, #32]	; (8000a64 <timer2_init+0x44>)
 8000a42:	681b      	ldr	r3, [r3, #0]
 8000a44:	4a07      	ldr	r2, [pc, #28]	; (8000a64 <timer2_init+0x44>)
 8000a46:	f043 0301 	orr.w	r3, r3, #1
 8000a4a:	6013      	str	r3, [r2, #0]
 8000a4c:	bf00      	nop
 8000a4e:	46bd      	mov	sp, r7
 8000a50:	f85d 7b04 	ldr.w	r7, [sp], #4
 8000a54:	4770      	bx	lr
 8000a56:	bf00      	nop
 8000a58:	40000028 	andmi	r0, r0, r8, lsr #32
 8000a5c:	4000002c 	andmi	r0, r0, ip, lsr #32
 8000a60:	000f4240 	andeq	r4, pc, r0, asr #4
 8000a64:	40000014 	andmi	r0, r0, r4, lsl r0

08000a68 <timer2_enable>:
 8000a68:	b480      	push	{r7}
 8000a6a:	af00      	add	r7, sp, #0
 8000a6c:	f04f 4380 	mov.w	r3, #1073741824	; 0x40000000
 8000a70:	681b      	ldr	r3, [r3, #0]
 8000a72:	f04f 4280 	mov.w	r2, #1073741824	; 0x40000000
 8000a76:	f043 0301 	orr.w	r3, r3, #1
 8000a7a:	6013      	str	r3, [r2, #0]
 8000a7c:	bf00      	nop
 8000a7e:	46bd      	mov	sp, r7
 8000a80:	f85d 7b04 	ldr.w	r7, [sp], #4
 8000a84:	4770      	bx	lr

08000a86 <timer2_disable>:
 8000a86:	b480      	push	{r7}
 8000a88:	af00      	add	r7, sp, #0
 8000a8a:	f04f 4380 	mov.w	r3, #1073741824	; 0x40000000
 8000a8e:	681b      	ldr	r3, [r3, #0]
 8000a90:	f04f 4280 	mov.w	r2, #1073741824	; 0x40000000
 8000a94:	f023 0301 	bic.w	r3, r3, #1
 8000a98:	6013      	str	r3, [r2, #0]
 8000a9a:	bf00      	nop
 8000a9c:	46bd      	mov	sp, r7
 8000a9e:	f85d 7b04 	ldr.w	r7, [sp], #4
 8000aa2:	4770      	bx	lr

08000aa4 <timer2_nonblocking_delay>:
 8000aa4:	b480      	push	{r7}
 8000aa6:	b083      	sub	sp, #12
 8000aa8:	af00      	add	r7, sp, #0
 8000aaa:	6078      	str	r0, [r7, #4]
 8000aac:	4a07      	ldr	r2, [pc, #28]	; (8000acc <timer2_nonblocking_delay+0x28>)
 8000aae:	687b      	ldr	r3, [r7, #4]
 8000ab0:	6013      	str	r3, [r2, #0]
 8000ab2:	4b07      	ldr	r3, [pc, #28]	; (8000ad0 <timer2_nonblocking_delay+0x2c>)
 8000ab4:	681b      	ldr	r3, [r3, #0]
 8000ab6:	4a06      	ldr	r2, [pc, #24]	; (8000ad0 <timer2_nonblocking_delay+0x2c>)
 8000ab8:	f043 0301 	orr.w	r3, r3, #1
 8000abc:	6013      	str	r3, [r2, #0]
 8000abe:	bf00      	nop
 8000ac0:	370c      	adds	r7, #12
 8000ac2:	46bd      	mov	sp, r7
 8000ac4:	f85d 7b04 	ldr.w	r7, [sp], #4
 8000ac8:	4770      	bx	lr
 8000aca:	bf00      	nop
 8000acc:	4000002c 	andmi	r0, r0, ip, lsr #32
 8000ad0:	40000014 	andmi	r0, r0, r4, lsl r0

08000ad4 <timer2_blocking_delay>:
 8000ad4:	b480      	push	{r7}
 8000ad6:	b083      	sub	sp, #12
 8000ad8:	af00      	add	r7, sp, #0
 8000ada:	6078      	str	r0, [r7, #4]
 8000adc:	4a0c      	ldr	r2, [pc, #48]	; (8000b10 <timer2_blocking_delay+0x3c>)
 8000ade:	687b      	ldr	r3, [r7, #4]
 8000ae0:	3301      	adds	r3, #1
 8000ae2:	6013      	str	r3, [r2, #0]
 8000ae4:	4b0b      	ldr	r3, [pc, #44]	; (8000b14 <timer2_blocking_delay+0x40>)
 8000ae6:	681b      	ldr	r3, [r3, #0]
 8000ae8:	4a0a      	ldr	r2, [pc, #40]	; (8000b14 <timer2_blocking_delay+0x40>)
 8000aea:	f043 0301 	orr.w	r3, r3, #1
 8000aee:	6013      	str	r3, [r2, #0]
 8000af0:	4b09      	ldr	r3, [pc, #36]	; (8000b18 <timer2_blocking_delay+0x44>)
 8000af2:	2200      	movs	r2, #0
 8000af4:	601a      	str	r2, [r3, #0]
 8000af6:	bf00      	nop
 8000af8:	4b07      	ldr	r3, [pc, #28]	; (8000b18 <timer2_blocking_delay+0x44>)
 8000afa:	681b      	ldr	r3, [r3, #0]
 8000afc:	687a      	ldr	r2, [r7, #4]
 8000afe:	429a      	cmp	r2, r3
 8000b00:	d8fa      	bhi.n	8000af8 <timer2_blocking_delay+0x24>
 8000b02:	bf00      	nop
 8000b04:	bf00      	nop
 8000b06:	370c      	adds	r7, #12
 8000b08:	46bd      	mov	sp, r7
 8000b0a:	f85d 7b04 	ldr.w	r7, [sp], #4
 8000b0e:	4770      	bx	lr
 8000b10:	4000002c 	andmi	r0, r0, ip, lsr #32
 8000b14:	40000014 	andmi	r0, r0, r4, lsl r0
 8000b18:	40000024 	andmi	r0, r0, r4, lsr #32

08000b1c <TIM2_IRQHandler>:
 8000b1c:	b580      	push	{r7, lr}
 8000b1e:	af00      	add	r7, sp, #0
 8000b20:	f7ff fdca 	bl	80006b8 <nvic_disable>
 8000b24:	4b06      	ldr	r3, [pc, #24]	; (8000b40 <TIM2_IRQHandler+0x24>)
 8000b26:	2201      	movs	r2, #1
 8000b28:	601a      	str	r2, [r3, #0]
 8000b2a:	4b06      	ldr	r3, [pc, #24]	; (8000b44 <TIM2_IRQHandler+0x28>)
 8000b2c:	681b      	ldr	r3, [r3, #0]
 8000b2e:	4a05      	ldr	r2, [pc, #20]	; (8000b44 <TIM2_IRQHandler+0x28>)
 8000b30:	f023 0301 	bic.w	r3, r3, #1
 8000b34:	6013      	str	r3, [r2, #0]
 8000b36:	f7ff fda7 	bl	8000688 <nvic_enable>
 8000b3a:	bf00      	nop
 8000b3c:	bd80      	pop	{r7, pc}
 8000b3e:	bf00      	nop
 8000b40:	200000a4 	andcs	r0, r0, r4, lsr #1
 8000b44:	40000010 	andmi	r0, r0, r0, lsl r0

08000b48 <pxPortInitialiseStack>:
 8000b48:	b480      	push	{r7}
 8000b4a:	b085      	sub	sp, #20
 8000b4c:	af00      	add	r7, sp, #0
 8000b4e:	60f8      	str	r0, [r7, #12]
 8000b50:	60b9      	str	r1, [r7, #8]
 8000b52:	607a      	str	r2, [r7, #4]
 8000b54:	68fb      	ldr	r3, [r7, #12]
 8000b56:	3b04      	subs	r3, #4
 8000b58:	60fb      	str	r3, [r7, #12]
 8000b5a:	68fb      	ldr	r3, [r7, #12]
 8000b5c:	f04f 7280 	mov.w	r2, #16777216	; 0x1000000
 8000b60:	601a      	str	r2, [r3, #0]
 8000b62:	68fb      	ldr	r3, [r7, #12]
 8000b64:	3b04      	subs	r3, #4
 8000b66:	60fb      	str	r3, [r7, #12]
 8000b68:	68bb      	ldr	r3, [r7, #8]
 8000b6a:	f023 0201 	bic.w	r2, r3, #1
 8000b6e:	68fb      	ldr	r3, [r7, #12]
 8000b70:	601a      	str	r2, [r3, #0]
 8000b72:	68fb      	ldr	r3, [r7, #12]
 8000b74:	3b04      	subs	r3, #4
 8000b76:	60fb      	str	r3, [r7, #12]
 8000b78:	4a0c      	ldr	r2, [pc, #48]	; (8000bac <pxPortInitialiseStack+0x64>)
 8000b7a:	68fb      	ldr	r3, [r7, #12]
 8000b7c:	601a      	str	r2, [r3, #0]
 8000b7e:	68fb      	ldr	r3, [r7, #12]
 8000b80:	3b14      	subs	r3, #20
 8000b82:	60fb      	str	r3, [r7, #12]
 8000b84:	687a      	ldr	r2, [r7, #4]
 8000b86:	68fb      	ldr	r3, [r7, #12]
 8000b88:	601a      	str	r2, [r3, #0]
 8000b8a:	68fb      	ldr	r3, [r7, #12]
 8000b8c:	3b04      	subs	r3, #4
 8000b8e:	60fb      	str	r3, [r7, #12]
 8000b90:	68fb      	ldr	r3, [r7, #12]
 8000b92:	f06f 0202 	mvn.w	r2, #2
 8000b96:	601a      	str	r2, [r3, #0]
 8000b98:	68fb      	ldr	r3, [r7, #12]
 8000b9a:	3b20      	subs	r3, #32
 8000b9c:	60fb      	str	r3, [r7, #12]
 8000b9e:	68fb      	ldr	r3, [r7, #12]
 8000ba0:	4618      	mov	r0, r3
 8000ba2:	3714      	adds	r7, #20
 8000ba4:	46bd      	mov	sp, r7
 8000ba6:	f85d 7b04 	ldr.w	r7, [sp], #4
 8000baa:	4770      	bx	lr
 8000bac:	08000bb1 	stmdaeq	r0, {r0, r4, r5, r7, r8, r9, fp}

08000bb0 <prvTaskExitError>:
 8000bb0:	b480      	push	{r7}
 8000bb2:	b085      	sub	sp, #20
 8000bb4:	af00      	add	r7, sp, #0
 8000bb6:	2300      	movs	r3, #0
 8000bb8:	607b      	str	r3, [r7, #4]
 8000bba:	4b12      	ldr	r3, [pc, #72]	; (8000c04 <prvTaskExitError+0x54>)
 8000bbc:	681b      	ldr	r3, [r3, #0]
 8000bbe:	f1b3 3fff 	cmp.w	r3, #4294967295	; 0xffffffff
 8000bc2:	d00a      	beq.n	8000bda <prvTaskExitError+0x2a>
 8000bc4:	f04f 0350 	mov.w	r3, #80	; 0x50
 8000bc8:	f383 8811 	msr	BASEPRI, r3
 8000bcc:	f3bf 8f6f 	isb	sy
 8000bd0:	f3bf 8f4f 	dsb	sy
 8000bd4:	60fb      	str	r3, [r7, #12]
 8000bd6:	bf00      	nop
 8000bd8:	e7fe      	b.n	8000bd8 <prvTaskExitError+0x28>
 8000bda:	f04f 0350 	mov.w	r3, #80	; 0x50
 8000bde:	f383 8811 	msr	BASEPRI, r3
 8000be2:	f3bf 8f6f 	isb	sy
 8000be6:	f3bf 8f4f 	dsb	sy
 8000bea:	60bb      	str	r3, [r7, #8]
 8000bec:	bf00      	nop
 8000bee:	bf00      	nop
 8000bf0:	687b      	ldr	r3, [r7, #4]
 8000bf2:	2b00      	cmp	r3, #0
 8000bf4:	d0fc      	beq.n	8000bf0 <prvTaskExitError+0x40>
 8000bf6:	bf00      	nop
 8000bf8:	bf00      	nop
 8000bfa:	3714      	adds	r7, #20
 8000bfc:	46bd      	mov	sp, r7
 8000bfe:	f85d 7b04 	ldr.w	r7, [sp], #4
 8000c02:	4770      	bx	lr
 8000c04:	2000000c 	andcs	r0, r0, ip

08000c08 <SVC_Handler>:
 8000c08:	4b06      	ldr	r3, [pc, #24]	; (8000c24 <SVC_Handler+0x1c>)
 8000c0a:	6819      	ldr	r1, [r3, #0]
 8000c0c:	6808      	ldr	r0, [r1, #0]
 8000c0e:	e8b0 4ff0 	ldmia.w	r0!, {r4, r5, r6, r7, r8, r9, sl, fp, lr}
 8000c12:	f380 8809 	msr	PSP, r0
 8000c16:	f3bf 8f6f 	isb	sy
 8000c1a:	f04f 0000 	mov.w	r0, #0
 8000c1e:	f380 8811 	msr	BASEPRI, r0
 8000c22:	4770      	bx	lr
 8000c24:	20012d0c 	andcs	r2, r1, ip, lsl #26
 8000c28:	bf00      	nop

08000c2a <prvPortStartFirstTask>:
 8000c2a:	4808      	ldr	r0, [pc, #32]	; (8000c4c <prvPortStartFirstTask+0x22>)
 8000c2c:	6800      	ldr	r0, [r0, #0]
 8000c2e:	6800      	ldr	r0, [r0, #0]
 8000c30:	f380 8808 	msr	MSP, r0
 8000c34:	f04f 0000 	mov.w	r0, #0
 8000c38:	f380 8814 	msr	CONTROL, r0
 8000c3c:	b662      	cpsie	i
 8000c3e:	b661      	cpsie	f
 8000c40:	f3bf 8f4f 	dsb	sy
 8000c44:	f3bf 8f6f 	isb	sy
 8000c48:	df00      	svc	0
 8000c4a:	bf00      	nop
 8000c4c:	e000ed08 	and	lr, r0, r8, lsl #26
 8000c50:	bf00      	nop

08000c52 <xPortStartScheduler>:
 8000c52:	b580      	push	{r7, lr}
 8000c54:	b08c      	sub	sp, #48	; 0x30
 8000c56:	af00      	add	r7, sp, #0
 8000c58:	4b65      	ldr	r3, [pc, #404]	; (8000df0 <xPortStartScheduler+0x19e>)
 8000c5a:	681b      	ldr	r3, [r3, #0]
 8000c5c:	4a65      	ldr	r2, [pc, #404]	; (8000df4 <xPortStartScheduler+0x1a2>)
 8000c5e:	4293      	cmp	r3, r2
 8000c60:	d10a      	bne.n	8000c78 <xPortStartScheduler+0x26>
 8000c62:	f04f 0350 	mov.w	r3, #80	; 0x50
 8000c66:	f383 8811 	msr	BASEPRI, r3
 8000c6a:	f3bf 8f6f 	isb	sy
 8000c6e:	f3bf 8f4f 	dsb	sy
 8000c72:	627b      	str	r3, [r7, #36]	; 0x24
 8000c74:	bf00      	nop
 8000c76:	e7fe      	b.n	8000c76 <xPortStartScheduler+0x24>
 8000c78:	4b5d      	ldr	r3, [pc, #372]	; (8000df0 <xPortStartScheduler+0x19e>)
 8000c7a:	681b      	ldr	r3, [r3, #0]
 8000c7c:	4a5e      	ldr	r2, [pc, #376]	; (8000df8 <xPortStartScheduler+0x1a6>)
 8000c7e:	4293      	cmp	r3, r2
 8000c80:	d10a      	bne.n	8000c98 <xPortStartScheduler+0x46>
 8000c82:	f04f 0350 	mov.w	r3, #80	; 0x50
 8000c86:	f383 8811 	msr	BASEPRI, r3
 8000c8a:	f3bf 8f6f 	isb	sy
 8000c8e:	f3bf 8f4f 	dsb	sy
 8000c92:	623b      	str	r3, [r7, #32]
 8000c94:	bf00      	nop
 8000c96:	e7fe      	b.n	8000c96 <xPortStartScheduler+0x44>
 8000c98:	4b58      	ldr	r3, [pc, #352]	; (8000dfc <xPortStartScheduler+0x1aa>)
 8000c9a:	681b      	ldr	r3, [r3, #0]
 8000c9c:	62fb      	str	r3, [r7, #44]	; 0x2c
 8000c9e:	6afb      	ldr	r3, [r7, #44]	; 0x2c
 8000ca0:	332c      	adds	r3, #44	; 0x2c
 8000ca2:	681b      	ldr	r3, [r3, #0]
 8000ca4:	4a56      	ldr	r2, [pc, #344]	; (8000e00 <xPortStartScheduler+0x1ae>)
 8000ca6:	4293      	cmp	r3, r2
 8000ca8:	d00a      	beq.n	8000cc0 <xPortStartScheduler+0x6e>
 8000caa:	f04f 0350 	mov.w	r3, #80	; 0x50
 8000cae:	f383 8811 	msr	BASEPRI, r3
 8000cb2:	f3bf 8f6f 	isb	sy
 8000cb6:	f3bf 8f4f 	dsb	sy
 8000cba:	61fb      	str	r3, [r7, #28]
 8000cbc:	bf00      	nop
 8000cbe:	e7fe      	b.n	8000cbe <xPortStartScheduler+0x6c>
 8000cc0:	6afb      	ldr	r3, [r7, #44]	; 0x2c
 8000cc2:	3338      	adds	r3, #56	; 0x38
 8000cc4:	681b      	ldr	r3, [r3, #0]
 8000cc6:	4a4f      	ldr	r2, [pc, #316]	; (8000e04 <xPortStartScheduler+0x1b2>)
 8000cc8:	4293      	cmp	r3, r2
 8000cca:	d00a      	beq.n	8000ce2 <xPortStartScheduler+0x90>
 8000ccc:	f04f 0350 	mov.w	r3, #80	; 0x50
 8000cd0:	f383 8811 	msr	BASEPRI, r3
 8000cd4:	f3bf 8f6f 	isb	sy
 8000cd8:	f3bf 8f4f 	dsb	sy
 8000cdc:	61bb      	str	r3, [r7, #24]
 8000cde:	bf00      	nop
 8000ce0:	e7fe      	b.n	8000ce0 <xPortStartScheduler+0x8e>
 8000ce2:	2300      	movs	r3, #0
 8000ce4:	60bb      	str	r3, [r7, #8]
 8000ce6:	4b48      	ldr	r3, [pc, #288]	; (8000e08 <xPortStartScheduler+0x1b6>)
 8000ce8:	62bb      	str	r3, [r7, #40]	; 0x28
 8000cea:	6abb      	ldr	r3, [r7, #40]	; 0x28
 8000cec:	781b      	ldrb	r3, [r3, #0]
 8000cee:	b2db      	uxtb	r3, r3
 8000cf0:	73fb      	strb	r3, [r7, #15]
 8000cf2:	6abb      	ldr	r3, [r7, #40]	; 0x28
 8000cf4:	22ff      	movs	r2, #255	; 0xff
 8000cf6:	701a      	strb	r2, [r3, #0]
 8000cf8:	6abb      	ldr	r3, [r7, #40]	; 0x28
 8000cfa:	781b      	ldrb	r3, [r3, #0]
 8000cfc:	b2db      	uxtb	r3, r3
 8000cfe:	71fb      	strb	r3, [r7, #7]
 8000d00:	79fb      	ldrb	r3, [r7, #7]
 8000d02:	b2db      	uxtb	r3, r3
 8000d04:	f003 0350 	and.w	r3, r3, #80	; 0x50
 8000d08:	b2da      	uxtb	r2, r3
 8000d0a:	4b40      	ldr	r3, [pc, #256]	; (8000e0c <xPortStartScheduler+0x1ba>)
 8000d0c:	701a      	strb	r2, [r3, #0]
 8000d0e:	4b3f      	ldr	r3, [pc, #252]	; (8000e0c <xPortStartScheduler+0x1ba>)
 8000d10:	781b      	ldrb	r3, [r3, #0]
 8000d12:	2b00      	cmp	r3, #0
 8000d14:	d10a      	bne.n	8000d2c <xPortStartScheduler+0xda>
 8000d16:	f04f 0350 	mov.w	r3, #80	; 0x50
 8000d1a:	f383 8811 	msr	BASEPRI, r3
 8000d1e:	f3bf 8f6f 	isb	sy
 8000d22:	f3bf 8f4f 	dsb	sy
 8000d26:	617b      	str	r3, [r7, #20]
 8000d28:	bf00      	nop
 8000d2a:	e7fe      	b.n	8000d2a <xPortStartScheduler+0xd8>
 8000d2c:	79fb      	ldrb	r3, [r7, #7]
 8000d2e:	b2db      	uxtb	r3, r3
 8000d30:	43db      	mvns	r3, r3
 8000d32:	f003 0350 	and.w	r3, r3, #80	; 0x50
 8000d36:	2b00      	cmp	r3, #0
 8000d38:	d012      	beq.n	8000d60 <xPortStartScheduler+0x10e>
 8000d3a:	f04f 0350 	mov.w	r3, #80	; 0x50
 8000d3e:	f383 8811 	msr	BASEPRI, r3
 8000d42:	f3bf 8f6f 	isb	sy
 8000d46:	f3bf 8f4f 	dsb	sy
 8000d4a:	613b      	str	r3, [r7, #16]
 8000d4c:	bf00      	nop
 8000d4e:	e7fe      	b.n	8000d4e <xPortStartScheduler+0xfc>
 8000d50:	68bb      	ldr	r3, [r7, #8]
 8000d52:	3301      	adds	r3, #1
 8000d54:	60bb      	str	r3, [r7, #8]
 8000d56:	79fb      	ldrb	r3, [r7, #7]
 8000d58:	b2db      	uxtb	r3, r3
 8000d5a:	005b      	lsls	r3, r3, #1
 8000d5c:	b2db      	uxtb	r3, r3
 8000d5e:	71fb      	strb	r3, [r7, #7]
 8000d60:	79fb      	ldrb	r3, [r7, #7]
 8000d62:	b2db      	uxtb	r3, r3
 8000d64:	f003 0380 	and.w	r3, r3, #128	; 0x80
 8000d68:	2b80      	cmp	r3, #128	; 0x80
 8000d6a:	d0f1      	beq.n	8000d50 <xPortStartScheduler+0xfe>
 8000d6c:	68bb      	ldr	r3, [r7, #8]
 8000d6e:	2b08      	cmp	r3, #8
 8000d70:	d103      	bne.n	8000d7a <xPortStartScheduler+0x128>
 8000d72:	4b27      	ldr	r3, [pc, #156]	; (8000e10 <xPortStartScheduler+0x1be>)
 8000d74:	2200      	movs	r2, #0
 8000d76:	601a      	str	r2, [r3, #0]
 8000d78:	e004      	b.n	8000d84 <xPortStartScheduler+0x132>
 8000d7a:	68bb      	ldr	r3, [r7, #8]
 8000d7c:	f1c3 0307 	rsb	r3, r3, #7
 8000d80:	4a23      	ldr	r2, [pc, #140]	; (8000e10 <xPortStartScheduler+0x1be>)
 8000d82:	6013      	str	r3, [r2, #0]
 8000d84:	4b22      	ldr	r3, [pc, #136]	; (8000e10 <xPortStartScheduler+0x1be>)
 8000d86:	681b      	ldr	r3, [r3, #0]
 8000d88:	021b      	lsls	r3, r3, #8
 8000d8a:	4a21      	ldr	r2, [pc, #132]	; (8000e10 <xPortStartScheduler+0x1be>)
 8000d8c:	6013      	str	r3, [r2, #0]
 8000d8e:	4b20      	ldr	r3, [pc, #128]	; (8000e10 <xPortStartScheduler+0x1be>)
 8000d90:	681b      	ldr	r3, [r3, #0]
 8000d92:	f403 63e0 	and.w	r3, r3, #1792	; 0x700
 8000d96:	4a1e      	ldr	r2, [pc, #120]	; (8000e10 <xPortStartScheduler+0x1be>)
 8000d98:	6013      	str	r3, [r2, #0]
 8000d9a:	7bfb      	ldrb	r3, [r7, #15]
 8000d9c:	b2da      	uxtb	r2, r3
 8000d9e:	6abb      	ldr	r3, [r7, #40]	; 0x28
 8000da0:	701a      	strb	r2, [r3, #0]
 8000da2:	4b1c      	ldr	r3, [pc, #112]	; (8000e14 <xPortStartScheduler+0x1c2>)
 8000da4:	681b      	ldr	r3, [r3, #0]
 8000da6:	4a1b      	ldr	r2, [pc, #108]	; (8000e14 <xPortStartScheduler+0x1c2>)
 8000da8:	f443 037f 	orr.w	r3, r3, #16711680	; 0xff0000
 8000dac:	6013      	str	r3, [r2, #0]
 8000dae:	4b19      	ldr	r3, [pc, #100]	; (8000e14 <xPortStartScheduler+0x1c2>)
 8000db0:	681b      	ldr	r3, [r3, #0]
 8000db2:	4a18      	ldr	r2, [pc, #96]	; (8000e14 <xPortStartScheduler+0x1c2>)
 8000db4:	f043 437f 	orr.w	r3, r3, #4278190080	; 0xff000000
 8000db8:	6013      	str	r3, [r2, #0]
 8000dba:	4b17      	ldr	r3, [pc, #92]	; (8000e18 <xPortStartScheduler+0x1c6>)
 8000dbc:	2200      	movs	r2, #0
 8000dbe:	601a      	str	r2, [r3, #0]
 8000dc0:	f000 f8fa 	bl	8000fb8 <vPortSetupTimerInterrupt>
 8000dc4:	4b15      	ldr	r3, [pc, #84]	; (8000e1c <xPortStartScheduler+0x1ca>)
 8000dc6:	2200      	movs	r2, #0
 8000dc8:	601a      	str	r2, [r3, #0]
 8000dca:	f000 f911 	bl	8000ff0 <vPortEnableVFP>
 8000dce:	4b14      	ldr	r3, [pc, #80]	; (8000e20 <xPortStartScheduler+0x1ce>)
 8000dd0:	681b      	ldr	r3, [r3, #0]
 8000dd2:	4a13      	ldr	r2, [pc, #76]	; (8000e20 <xPortStartScheduler+0x1ce>)
 8000dd4:	f043 4340 	orr.w	r3, r3, #3221225472	; 0xc0000000
 8000dd8:	6013      	str	r3, [r2, #0]
 8000dda:	f7ff ff26 	bl	8000c2a <prvPortStartFirstTask>
 8000dde:	f004 fe2d 	bl	8005a3c <vTaskSwitchContext>
 8000de2:	f7ff fee5 	bl	8000bb0 <prvTaskExitError>
 8000de6:	2300      	movs	r3, #0
 8000de8:	4618      	mov	r0, r3
 8000dea:	3730      	adds	r7, #48	; 0x30
 8000dec:	46bd      	mov	sp, r7
 8000dee:	bd80      	pop	{r7, pc}
 8000df0:	e000ed00 	and	lr, r0, r0, lsl #26
 8000df4:	410fc271 	tstmi	pc, r1, ror r2	; <UNPREDICTABLE>
 8000df8:	410fc270 	tstmi	pc, r0, ror r2	; <UNPREDICTABLE>
 8000dfc:	e000ed08 	and	lr, r0, r8, lsl #26
 8000e00:	08000c09 	stmdaeq	r0, {r0, r3, sl, fp}
 8000e04:	08000f11 	stmdaeq	r0, {r0, r4, r8, r9, sl, fp}
 8000e08:	e000e400 	and	lr, r0, r0, lsl #8
 8000e0c:	200000a8 	andcs	r0, r0, r8, lsr #1
 8000e10:	200000ac 	andcs	r0, r0, ip, lsr #1
 8000e14:	e000ed20 	and	lr, r0, r0, lsr #26
 8000e18:	e000ed1c 	and	lr, r0, ip, lsl sp
 8000e1c:	2000000c 	andcs	r0, r0, ip
 8000e20:	e000ef34 	and	lr, r0, r4, lsr pc

08000e24 <vPortEndScheduler>:
 8000e24:	b480      	push	{r7}
 8000e26:	b083      	sub	sp, #12
 8000e28:	af00      	add	r7, sp, #0
 8000e2a:	4b0b      	ldr	r3, [pc, #44]	; (8000e58 <vPortEndScheduler+0x34>)
 8000e2c:	681b      	ldr	r3, [r3, #0]
 8000e2e:	f5b3 7f7a 	cmp.w	r3, #1000	; 0x3e8
 8000e32:	d00a      	beq.n	8000e4a <vPortEndScheduler+0x26>
 8000e34:	f04f 0350 	mov.w	r3, #80	; 0x50
 8000e38:	f383 8811 	msr	BASEPRI, r3
 8000e3c:	f3bf 8f6f 	isb	sy
 8000e40:	f3bf 8f4f 	dsb	sy
 8000e44:	607b      	str	r3, [r7, #4]
 8000e46:	bf00      	nop
 8000e48:	e7fe      	b.n	8000e48 <vPortEndScheduler+0x24>
 8000e4a:	bf00      	nop
 8000e4c:	370c      	adds	r7, #12
 8000e4e:	46bd      	mov	sp, r7
 8000e50:	f85d 7b04 	ldr.w	r7, [sp], #4
 8000e54:	4770      	bx	lr
 8000e56:	bf00      	nop
 8000e58:	2000000c 	andcs	r0, r0, ip

08000e5c <vPortEnterCritical>:
 8000e5c:	b480      	push	{r7}
 8000e5e:	b083      	sub	sp, #12
 8000e60:	af00      	add	r7, sp, #0
 8000e62:	f04f 0350 	mov.w	r3, #80	; 0x50
 8000e66:	f383 8811 	msr	BASEPRI, r3
 8000e6a:	f3bf 8f6f 	isb	sy
 8000e6e:	f3bf 8f4f 	dsb	sy
 8000e72:	607b      	str	r3, [r7, #4]
 8000e74:	bf00      	nop
 8000e76:	4b0f      	ldr	r3, [pc, #60]	; (8000eb4 <vPortEnterCritical+0x58>)
 8000e78:	681b      	ldr	r3, [r3, #0]
 8000e7a:	3301      	adds	r3, #1
 8000e7c:	4a0d      	ldr	r2, [pc, #52]	; (8000eb4 <vPortEnterCritical+0x58>)
 8000e7e:	6013      	str	r3, [r2, #0]
 8000e80:	4b0c      	ldr	r3, [pc, #48]	; (8000eb4 <vPortEnterCritical+0x58>)
 8000e82:	681b      	ldr	r3, [r3, #0]
 8000e84:	2b01      	cmp	r3, #1
 8000e86:	d10f      	bne.n	8000ea8 <vPortEnterCritical+0x4c>
 8000e88:	4b0b      	ldr	r3, [pc, #44]	; (8000eb8 <vPortEnterCritical+0x5c>)
 8000e8a:	681b      	ldr	r3, [r3, #0]
 8000e8c:	b2db      	uxtb	r3, r3
 8000e8e:	2b00      	cmp	r3, #0
 8000e90:	d00a      	beq.n	8000ea8 <vPortEnterCritical+0x4c>
 8000e92:	f04f 0350 	mov.w	r3, #80	; 0x50
 8000e96:	f383 8811 	msr	BASEPRI, r3
 8000e9a:	f3bf 8f6f 	isb	sy
 8000e9e:	f3bf 8f4f 	dsb	sy
 8000ea2:	603b      	str	r3, [r7, #0]
 8000ea4:	bf00      	nop
 8000ea6:	e7fe      	b.n	8000ea6 <vPortEnterCritical+0x4a>
 8000ea8:	bf00      	nop
 8000eaa:	370c      	adds	r7, #12
 8000eac:	46bd      	mov	sp, r7
 8000eae:	f85d 7b04 	ldr.w	r7, [sp], #4
 8000eb2:	4770      	bx	lr
 8000eb4:	2000000c 	andcs	r0, r0, ip
 8000eb8:	e000ed04 	and	lr, r0, r4, lsl #26

08000ebc <vPortExitCritical>:
 8000ebc:	b480      	push	{r7}
 8000ebe:	b083      	sub	sp, #12
 8000ec0:	af00      	add	r7, sp, #0
 8000ec2:	4b12      	ldr	r3, [pc, #72]	; (8000f0c <vPortExitCritical+0x50>)
 8000ec4:	681b      	ldr	r3, [r3, #0]
 8000ec6:	2b00      	cmp	r3, #0
 8000ec8:	d10a      	bne.n	8000ee0 <vPortExitCritical+0x24>
 8000eca:	f04f 0350 	mov.w	r3, #80	; 0x50
 8000ece:	f383 8811 	msr	BASEPRI, r3
 8000ed2:	f3bf 8f6f 	isb	sy
 8000ed6:	f3bf 8f4f 	dsb	sy
 8000eda:	607b      	str	r3, [r7, #4]
 8000edc:	bf00      	nop
 8000ede:	e7fe      	b.n	8000ede <vPortExitCritical+0x22>
 8000ee0:	4b0a      	ldr	r3, [pc, #40]	; (8000f0c <vPortExitCritical+0x50>)
 8000ee2:	681b      	ldr	r3, [r3, #0]
 8000ee4:	3b01      	subs	r3, #1
 8000ee6:	4a09      	ldr	r2, [pc, #36]	; (8000f0c <vPortExitCritical+0x50>)
 8000ee8:	6013      	str	r3, [r2, #0]
 8000eea:	4b08      	ldr	r3, [pc, #32]	; (8000f0c <vPortExitCritical+0x50>)
 8000eec:	681b      	ldr	r3, [r3, #0]
 8000eee:	2b00      	cmp	r3, #0
 8000ef0:	d105      	bne.n	8000efe <vPortExitCritical+0x42>
 8000ef2:	2300      	movs	r3, #0
 8000ef4:	603b      	str	r3, [r7, #0]
 8000ef6:	683b      	ldr	r3, [r7, #0]
 8000ef8:	f383 8811 	msr	BASEPRI, r3
 8000efc:	bf00      	nop
 8000efe:	bf00      	nop
 8000f00:	370c      	adds	r7, #12
 8000f02:	46bd      	mov	sp, r7
 8000f04:	f85d 7b04 	ldr.w	r7, [sp], #4
 8000f08:	4770      	bx	lr
 8000f0a:	bf00      	nop
 8000f0c:	2000000c 	andcs	r0, r0, ip

08000f10 <PendSV_Handler>:
 8000f10:	f3ef 8009 	mrs	r0, PSP
 8000f14:	f3bf 8f6f 	isb	sy
 8000f18:	4b14      	ldr	r3, [pc, #80]	; (8000f6c <PendSV_Handler+0x5c>)
 8000f1a:	681a      	ldr	r2, [r3, #0]
 8000f1c:	f01e 0f10 	tst.w	lr, #16
 8000f20:	bf08      	it	eq
 8000f22:	ed20 8a10 	vstmdbeq	r0!, {s16-s31}
 8000f26:	e920 4ff0 	stmdb	r0!, {r4, r5, r6, r7, r8, r9, sl, fp, lr}
 8000f2a:	6010      	str	r0, [r2, #0]
 8000f2c:	e92d 0009 	stmdb	sp!, {r0, r3}
 8000f30:	f04f 0050 	mov.w	r0, #80	; 0x50
 8000f34:	f380 8811 	msr	BASEPRI, r0
 8000f38:	f3bf 8f4f 	dsb	sy
 8000f3c:	f3bf 8f6f 	isb	sy
 8000f40:	f004 fd7c 	bl	8005a3c <vTaskSwitchContext>
 8000f44:	f04f 0000 	mov.w	r0, #0
 8000f48:	f380 8811 	msr	BASEPRI, r0
 8000f4c:	bc09      	pop	{r0, r3}
 8000f4e:	6819      	ldr	r1, [r3, #0]
 8000f50:	6808      	ldr	r0, [r1, #0]
 8000f52:	e8b0 4ff0 	ldmia.w	r0!, {r4, r5, r6, r7, r8, r9, sl, fp, lr}
 8000f56:	f01e 0f10 	tst.w	lr, #16
 8000f5a:	bf08      	it	eq
 8000f5c:	ecb0 8a10 	vldmiaeq	r0!, {s16-s31}
 8000f60:	f380 8809 	msr	PSP, r0
 8000f64:	f3bf 8f6f 	isb	sy
 8000f68:	4770      	bx	lr
 8000f6a:	2d0c0000 	stccs	0, cr0, [ip, #-0]
 8000f6e:	bf002001 	svclt	0x00002001

08000f72 <SysTick_Handler>:
 8000f72:	b580      	push	{r7, lr}
 8000f74:	b082      	sub	sp, #8
 8000f76:	af00      	add	r7, sp, #0
 8000f78:	f04f 0350 	mov.w	r3, #80	; 0x50
 8000f7c:	f383 8811 	msr	BASEPRI, r3
 8000f80:	f3bf 8f6f 	isb	sy
 8000f84:	f3bf 8f4f 	dsb	sy
 8000f88:	607b      	str	r3, [r7, #4]
 8000f8a:	bf00      	nop
 8000f8c:	f004 fc3e 	bl	800580c <xTaskIncrementTick>
 8000f90:	4603      	mov	r3, r0
 8000f92:	2b00      	cmp	r3, #0
 8000f94:	d003      	beq.n	8000f9e <SysTick_Handler+0x2c>
 8000f96:	4b07      	ldr	r3, [pc, #28]	; (8000fb4 <SysTick_Handler+0x42>)
 8000f98:	f04f 5280 	mov.w	r2, #268435456	; 0x10000000
 8000f9c:	601a      	str	r2, [r3, #0]
 8000f9e:	2300      	movs	r3, #0
 8000fa0:	603b      	str	r3, [r7, #0]
 8000fa2:	683b      	ldr	r3, [r7, #0]
 8000fa4:	f383 8811 	msr	BASEPRI, r3
 8000fa8:	bf00      	nop
 8000faa:	bf00      	nop
 8000fac:	3708      	adds	r7, #8
 8000fae:	46bd      	mov	sp, r7
 8000fb0:	bd80      	pop	{r7, pc}
 8000fb2:	bf00      	nop
 8000fb4:	e000ed04 	and	lr, r0, r4, lsl #26

08000fb8 <vPortSetupTimerInterrupt>:
 8000fb8:	b480      	push	{r7}
 8000fba:	af00      	add	r7, sp, #0
 8000fbc:	4b08      	ldr	r3, [pc, #32]	; (8000fe0 <vPortSetupTimerInterrupt+0x28>)
 8000fbe:	2200      	movs	r2, #0
 8000fc0:	601a      	str	r2, [r3, #0]
 8000fc2:	4b08      	ldr	r3, [pc, #32]	; (8000fe4 <vPortSetupTimerInterrupt+0x2c>)
 8000fc4:	2200      	movs	r2, #0
 8000fc6:	601a      	str	r2, [r3, #0]
 8000fc8:	4b07      	ldr	r3, [pc, #28]	; (8000fe8 <vPortSetupTimerInterrupt+0x30>)
 8000fca:	4a08      	ldr	r2, [pc, #32]	; (8000fec <vPortSetupTimerInterrupt+0x34>)
 8000fcc:	601a      	str	r2, [r3, #0]
 8000fce:	4b04      	ldr	r3, [pc, #16]	; (8000fe0 <vPortSetupTimerInterrupt+0x28>)
 8000fd0:	2207      	movs	r2, #7
 8000fd2:	601a      	str	r2, [r3, #0]
 8000fd4:	bf00      	nop
 8000fd6:	46bd      	mov	sp, r7
 8000fd8:	f85d 7b04 	ldr.w	r7, [sp], #4
 8000fdc:	4770      	bx	lr
 8000fde:	bf00      	nop
 8000fe0:	e000e010 	and	lr, r0, r0, lsl r0
 8000fe4:	e000e018 	and	lr, r0, r8, lsl r0
 8000fe8:	e000e014 	and	lr, r0, r4, lsl r0
 8000fec:	000752ff 	strdeq	r5, [r7], -pc	; <UNPREDICTABLE>

08000ff0 <vPortEnableVFP>:
 8000ff0:	f8df 000c 	ldr.w	r0, [pc, #12]	; 8001000 <vPortEnableVFP+0x10>
 8000ff4:	6801      	ldr	r1, [r0, #0]
 8000ff6:	f441 0170 	orr.w	r1, r1, #15728640	; 0xf00000
 8000ffa:	6001      	str	r1, [r0, #0]
 8000ffc:	4770      	bx	lr
 8000ffe:	ed880000 	stc	0, cr0, [r8]
 8001002:	bf00e000 	svclt	0x0000e000

08001006 <vPortValidateInterruptPriority>:
 8001006:	b480      	push	{r7}
 8001008:	b085      	sub	sp, #20
 800100a:	af00      	add	r7, sp, #0
 800100c:	f3ef 8305 	mrs	r3, IPSR
 8001010:	60fb      	str	r3, [r7, #12]
 8001012:	68fb      	ldr	r3, [r7, #12]
 8001014:	2b0f      	cmp	r3, #15
 8001016:	d914      	bls.n	8001042 <vPortValidateInterruptPriority+0x3c>
 8001018:	4a16      	ldr	r2, [pc, #88]	; (8001074 <vPortValidateInterruptPriority+0x6e>)
 800101a:	68fb      	ldr	r3, [r7, #12]
 800101c:	4413      	add	r3, r2
 800101e:	781b      	ldrb	r3, [r3, #0]
 8001020:	72fb      	strb	r3, [r7, #11]
 8001022:	4b15      	ldr	r3, [pc, #84]	; (8001078 <vPortValidateInterruptPriority+0x72>)
 8001024:	781b      	ldrb	r3, [r3, #0]
 8001026:	7afa      	ldrb	r2, [r7, #11]
 8001028:	429a      	cmp	r2, r3
 800102a:	d20a      	bcs.n	8001042 <vPortValidateInterruptPriority+0x3c>
 800102c:	f04f 0350 	mov.w	r3, #80	; 0x50
 8001030:	f383 8811 	msr	BASEPRI, r3
 8001034:	f3bf 8f6f 	isb	sy
 8001038:	f3bf 8f4f 	dsb	sy
 800103c:	607b      	str	r3, [r7, #4]
 800103e:	bf00      	nop
 8001040:	e7fe      	b.n	8001040 <vPortValidateInterruptPriority+0x3a>
 8001042:	4b0e      	ldr	r3, [pc, #56]	; (800107c <vPortValidateInterruptPriority+0x76>)
 8001044:	681b      	ldr	r3, [r3, #0]
 8001046:	f403 62e0 	and.w	r2, r3, #1792	; 0x700
 800104a:	4b0d      	ldr	r3, [pc, #52]	; (8001080 <vPortValidateInterruptPriority+0x7a>)
 800104c:	681b      	ldr	r3, [r3, #0]
 800104e:	429a      	cmp	r2, r3
 8001050:	d90a      	bls.n	8001068 <vPortValidateInterruptPriority+0x62>
 8001052:	f04f 0350 	mov.w	r3, #80	; 0x50
 8001056:	f383 8811 	msr	BASEPRI, r3
 800105a:	f3bf 8f6f 	isb	sy
 800105e:	f3bf 8f4f 	dsb	sy
 8001062:	603b      	str	r3, [r7, #0]
 8001064:	bf00      	nop
 8001066:	e7fe      	b.n	8001066 <vPortValidateInterruptPriority+0x60>
 8001068:	bf00      	nop
 800106a:	3714      	adds	r7, #20
 800106c:	46bd      	mov	sp, r7
 800106e:	f85d 7b04 	ldr.w	r7, [sp], #4
 8001072:	4770      	bx	lr
 8001074:	e000e3f0 	strd	lr, [r0], -r0
 8001078:	200000a8 	andcs	r0, r0, r8, lsr #1
 800107c:	e000ed0c 	and	lr, r0, ip, lsl #26
 8001080:	200000ac 	andcs	r0, r0, ip, lsr #1

08001084 <pvPortMalloc>:
 8001084:	b580      	push	{r7, lr}
 8001086:	b08e      	sub	sp, #56	; 0x38
 8001088:	af00      	add	r7, sp, #0
 800108a:	6078      	str	r0, [r7, #4]
 800108c:	2300      	movs	r3, #0
 800108e:	62fb      	str	r3, [r7, #44]	; 0x2c
 8001090:	2300      	movs	r3, #0
 8001092:	62bb      	str	r3, [r7, #40]	; 0x28
 8001094:	687b      	ldr	r3, [r7, #4]
 8001096:	2b00      	cmp	r3, #0
 8001098:	d022      	beq.n	80010e0 <pvPortMalloc+0x5c>
 800109a:	2308      	movs	r3, #8
 800109c:	43db      	mvns	r3, r3
 800109e:	687a      	ldr	r2, [r7, #4]
 80010a0:	429a      	cmp	r2, r3
 80010a2:	d81b      	bhi.n	80010dc <pvPortMalloc+0x58>
 80010a4:	2208      	movs	r2, #8
 80010a6:	687b      	ldr	r3, [r7, #4]
 80010a8:	4413      	add	r3, r2
 80010aa:	607b      	str	r3, [r7, #4]
 80010ac:	687b      	ldr	r3, [r7, #4]
 80010ae:	f003 0307 	and.w	r3, r3, #7
 80010b2:	2b00      	cmp	r3, #0
 80010b4:	d014      	beq.n	80010e0 <pvPortMalloc+0x5c>
 80010b6:	687b      	ldr	r3, [r7, #4]
 80010b8:	f003 0307 	and.w	r3, r3, #7
 80010bc:	f1c3 0308 	rsb	r3, r3, #8
 80010c0:	627b      	str	r3, [r7, #36]	; 0x24
 80010c2:	6a7b      	ldr	r3, [r7, #36]	; 0x24
 80010c4:	43db      	mvns	r3, r3
 80010c6:	687a      	ldr	r2, [r7, #4]
 80010c8:	429a      	cmp	r2, r3
 80010ca:	d804      	bhi.n	80010d6 <pvPortMalloc+0x52>
 80010cc:	687a      	ldr	r2, [r7, #4]
 80010ce:	6a7b      	ldr	r3, [r7, #36]	; 0x24
 80010d0:	4413      	add	r3, r2
 80010d2:	607b      	str	r3, [r7, #4]
 80010d4:	e004      	b.n	80010e0 <pvPortMalloc+0x5c>
 80010d6:	2300      	movs	r3, #0
 80010d8:	607b      	str	r3, [r7, #4]
 80010da:	e001      	b.n	80010e0 <pvPortMalloc+0x5c>
 80010dc:	2300      	movs	r3, #0
 80010de:	607b      	str	r3, [r7, #4]
 80010e0:	f004 f972 	bl	80053c8 <vTaskSuspendAll>
 80010e4:	4b78      	ldr	r3, [pc, #480]	; (80012c8 <pvPortMalloc+0x244>)
 80010e6:	681b      	ldr	r3, [r3, #0]
 80010e8:	2b00      	cmp	r3, #0
 80010ea:	d101      	bne.n	80010f0 <pvPortMalloc+0x6c>
 80010ec:	f000 f9d1 	bl	8001492 <prvHeapInit>
 80010f0:	687b      	ldr	r3, [r7, #4]
 80010f2:	2b00      	cmp	r3, #0
 80010f4:	f2c0 80d1 	blt.w	800129a <pvPortMalloc+0x216>
 80010f8:	687b      	ldr	r3, [r7, #4]
 80010fa:	2b00      	cmp	r3, #0
 80010fc:	f000 80cd 	beq.w	800129a <pvPortMalloc+0x216>
 8001100:	4b72      	ldr	r3, [pc, #456]	; (80012cc <pvPortMalloc+0x248>)
 8001102:	681b      	ldr	r3, [r3, #0]
 8001104:	687a      	ldr	r2, [r7, #4]
 8001106:	429a      	cmp	r2, r3
 8001108:	f200 80c7 	bhi.w	800129a <pvPortMalloc+0x216>
 800110c:	4b70      	ldr	r3, [pc, #448]	; (80012d0 <pvPortMalloc+0x24c>)
 800110e:	633b      	str	r3, [r7, #48]	; 0x30
 8001110:	4b6f      	ldr	r3, [pc, #444]	; (80012d0 <pvPortMalloc+0x24c>)
 8001112:	681b      	ldr	r3, [r3, #0]
 8001114:	637b      	str	r3, [r7, #52]	; 0x34
 8001116:	6b7b      	ldr	r3, [r7, #52]	; 0x34
 8001118:	4a6e      	ldr	r2, [pc, #440]	; (80012d4 <pvPortMalloc+0x250>)
 800111a:	4293      	cmp	r3, r2
 800111c:	d305      	bcc.n	800112a <pvPortMalloc+0xa6>
 800111e:	6b7b      	ldr	r3, [r7, #52]	; 0x34
 8001120:	4a6d      	ldr	r2, [pc, #436]	; (80012d8 <pvPortMalloc+0x254>)
 8001122:	4293      	cmp	r3, r2
 8001124:	d801      	bhi.n	800112a <pvPortMalloc+0xa6>
 8001126:	2301      	movs	r3, #1
 8001128:	e000      	b.n	800112c <pvPortMalloc+0xa8>
 800112a:	2300      	movs	r3, #0
 800112c:	2b00      	cmp	r3, #0
 800112e:	d127      	bne.n	8001180 <pvPortMalloc+0xfc>
 8001130:	f04f 0350 	mov.w	r3, #80	; 0x50
 8001134:	f383 8811 	msr	BASEPRI, r3
 8001138:	f3bf 8f6f 	isb	sy
 800113c:	f3bf 8f4f 	dsb	sy
 8001140:	61fb      	str	r3, [r7, #28]
 8001142:	bf00      	nop
 8001144:	e7fe      	b.n	8001144 <pvPortMalloc+0xc0>
 8001146:	6b7b      	ldr	r3, [r7, #52]	; 0x34
 8001148:	633b      	str	r3, [r7, #48]	; 0x30
 800114a:	6b7b      	ldr	r3, [r7, #52]	; 0x34
 800114c:	681b      	ldr	r3, [r3, #0]
 800114e:	637b      	str	r3, [r7, #52]	; 0x34
 8001150:	6b7b      	ldr	r3, [r7, #52]	; 0x34
 8001152:	4a60      	ldr	r2, [pc, #384]	; (80012d4 <pvPortMalloc+0x250>)
 8001154:	4293      	cmp	r3, r2
 8001156:	d305      	bcc.n	8001164 <pvPortMalloc+0xe0>
 8001158:	6b7b      	ldr	r3, [r7, #52]	; 0x34
 800115a:	4a5f      	ldr	r2, [pc, #380]	; (80012d8 <pvPortMalloc+0x254>)
 800115c:	4293      	cmp	r3, r2
 800115e:	d801      	bhi.n	8001164 <pvPortMalloc+0xe0>
 8001160:	2301      	movs	r3, #1
 8001162:	e000      	b.n	8001166 <pvPortMalloc+0xe2>
 8001164:	2300      	movs	r3, #0
 8001166:	2b00      	cmp	r3, #0
 8001168:	d10a      	bne.n	8001180 <pvPortMalloc+0xfc>
 800116a:	f04f 0350 	mov.w	r3, #80	; 0x50
 800116e:	f383 8811 	msr	BASEPRI, r3
 8001172:	f3bf 8f6f 	isb	sy
 8001176:	f3bf 8f4f 	dsb	sy
 800117a:	61bb      	str	r3, [r7, #24]
 800117c:	bf00      	nop
 800117e:	e7fe      	b.n	800117e <pvPortMalloc+0xfa>
 8001180:	6b7b      	ldr	r3, [r7, #52]	; 0x34
 8001182:	685b      	ldr	r3, [r3, #4]
 8001184:	687a      	ldr	r2, [r7, #4]
 8001186:	429a      	cmp	r2, r3
 8001188:	d903      	bls.n	8001192 <pvPortMalloc+0x10e>
 800118a:	6b7b      	ldr	r3, [r7, #52]	; 0x34
 800118c:	681b      	ldr	r3, [r3, #0]
 800118e:	2b00      	cmp	r3, #0
 8001190:	d1d9      	bne.n	8001146 <pvPortMalloc+0xc2>
 8001192:	4b4d      	ldr	r3, [pc, #308]	; (80012c8 <pvPortMalloc+0x244>)
 8001194:	681b      	ldr	r3, [r3, #0]
 8001196:	6b7a      	ldr	r2, [r7, #52]	; 0x34
 8001198:	429a      	cmp	r2, r3
 800119a:	d07e      	beq.n	800129a <pvPortMalloc+0x216>
 800119c:	6b3b      	ldr	r3, [r7, #48]	; 0x30
 800119e:	681b      	ldr	r3, [r3, #0]
 80011a0:	2208      	movs	r2, #8
 80011a2:	4413      	add	r3, r2
 80011a4:	62fb      	str	r3, [r7, #44]	; 0x2c
 80011a6:	6afb      	ldr	r3, [r7, #44]	; 0x2c
 80011a8:	4a4a      	ldr	r2, [pc, #296]	; (80012d4 <pvPortMalloc+0x250>)
 80011aa:	4293      	cmp	r3, r2
 80011ac:	d305      	bcc.n	80011ba <pvPortMalloc+0x136>
 80011ae:	6afb      	ldr	r3, [r7, #44]	; 0x2c
 80011b0:	4a49      	ldr	r2, [pc, #292]	; (80012d8 <pvPortMalloc+0x254>)
 80011b2:	4293      	cmp	r3, r2
 80011b4:	d801      	bhi.n	80011ba <pvPortMalloc+0x136>
 80011b6:	2301      	movs	r3, #1
 80011b8:	e000      	b.n	80011bc <pvPortMalloc+0x138>
 80011ba:	2300      	movs	r3, #0
 80011bc:	2b00      	cmp	r3, #0
 80011be:	d10a      	bne.n	80011d6 <pvPortMalloc+0x152>
 80011c0:	f04f 0350 	mov.w	r3, #80	; 0x50
 80011c4:	f383 8811 	msr	BASEPRI, r3
 80011c8:	f3bf 8f6f 	isb	sy
 80011cc:	f3bf 8f4f 	dsb	sy
 80011d0:	617b      	str	r3, [r7, #20]
 80011d2:	bf00      	nop
 80011d4:	e7fe      	b.n	80011d4 <pvPortMalloc+0x150>
 80011d6:	6b7b      	ldr	r3, [r7, #52]	; 0x34
 80011d8:	681a      	ldr	r2, [r3, #0]
 80011da:	6b3b      	ldr	r3, [r7, #48]	; 0x30
 80011dc:	601a      	str	r2, [r3, #0]
 80011de:	6b7b      	ldr	r3, [r7, #52]	; 0x34
 80011e0:	685b      	ldr	r3, [r3, #4]
 80011e2:	687a      	ldr	r2, [r7, #4]
 80011e4:	429a      	cmp	r2, r3
 80011e6:	d90a      	bls.n	80011fe <pvPortMalloc+0x17a>
 80011e8:	f04f 0350 	mov.w	r3, #80	; 0x50
 80011ec:	f383 8811 	msr	BASEPRI, r3
 80011f0:	f3bf 8f6f 	isb	sy
 80011f4:	f3bf 8f4f 	dsb	sy
 80011f8:	613b      	str	r3, [r7, #16]
 80011fa:	bf00      	nop
 80011fc:	e7fe      	b.n	80011fc <pvPortMalloc+0x178>
 80011fe:	6b7b      	ldr	r3, [r7, #52]	; 0x34
 8001200:	685a      	ldr	r2, [r3, #4]
 8001202:	687b      	ldr	r3, [r7, #4]
 8001204:	1ad2      	subs	r2, r2, r3
 8001206:	2308      	movs	r3, #8
 8001208:	005b      	lsls	r3, r3, #1
 800120a:	429a      	cmp	r2, r3
 800120c:	d923      	bls.n	8001256 <pvPortMalloc+0x1d2>
 800120e:	6b7a      	ldr	r2, [r7, #52]	; 0x34
 8001210:	687b      	ldr	r3, [r7, #4]
 8001212:	4413      	add	r3, r2
 8001214:	623b      	str	r3, [r7, #32]
 8001216:	6a3b      	ldr	r3, [r7, #32]
 8001218:	f003 0307 	and.w	r3, r3, #7
 800121c:	2b00      	cmp	r3, #0
 800121e:	d00a      	beq.n	8001236 <pvPortMalloc+0x1b2>
 8001220:	f04f 0350 	mov.w	r3, #80	; 0x50
 8001224:	f383 8811 	msr	BASEPRI, r3
 8001228:	f3bf 8f6f 	isb	sy
 800122c:	f3bf 8f4f 	dsb	sy
 8001230:	60fb      	str	r3, [r7, #12]
 8001232:	bf00      	nop
 8001234:	e7fe      	b.n	8001234 <pvPortMalloc+0x1b0>
 8001236:	6b7b      	ldr	r3, [r7, #52]	; 0x34
 8001238:	685a      	ldr	r2, [r3, #4]
 800123a:	687b      	ldr	r3, [r7, #4]
 800123c:	1ad2      	subs	r2, r2, r3
 800123e:	6a3b      	ldr	r3, [r7, #32]
 8001240:	605a      	str	r2, [r3, #4]
 8001242:	6b7b      	ldr	r3, [r7, #52]	; 0x34
 8001244:	687a      	ldr	r2, [r7, #4]
 8001246:	605a      	str	r2, [r3, #4]
 8001248:	6b3b      	ldr	r3, [r7, #48]	; 0x30
 800124a:	681a      	ldr	r2, [r3, #0]
 800124c:	6a3b      	ldr	r3, [r7, #32]
 800124e:	601a      	str	r2, [r3, #0]
 8001250:	6b3b      	ldr	r3, [r7, #48]	; 0x30
 8001252:	6a3a      	ldr	r2, [r7, #32]
 8001254:	601a      	str	r2, [r3, #0]
 8001256:	4b1d      	ldr	r3, [pc, #116]	; (80012cc <pvPortMalloc+0x248>)
 8001258:	681a      	ldr	r2, [r3, #0]
 800125a:	6b7b      	ldr	r3, [r7, #52]	; 0x34
 800125c:	685b      	ldr	r3, [r3, #4]
 800125e:	1ad3      	subs	r3, r2, r3
 8001260:	4a1a      	ldr	r2, [pc, #104]	; (80012cc <pvPortMalloc+0x248>)
 8001262:	6013      	str	r3, [r2, #0]
 8001264:	4b19      	ldr	r3, [pc, #100]	; (80012cc <pvPortMalloc+0x248>)
 8001266:	681a      	ldr	r2, [r3, #0]
 8001268:	4b1c      	ldr	r3, [pc, #112]	; (80012dc <pvPortMalloc+0x258>)
 800126a:	681b      	ldr	r3, [r3, #0]
 800126c:	429a      	cmp	r2, r3
 800126e:	d203      	bcs.n	8001278 <pvPortMalloc+0x1f4>
 8001270:	4b16      	ldr	r3, [pc, #88]	; (80012cc <pvPortMalloc+0x248>)
 8001272:	681b      	ldr	r3, [r3, #0]
 8001274:	4a19      	ldr	r2, [pc, #100]	; (80012dc <pvPortMalloc+0x258>)
 8001276:	6013      	str	r3, [r2, #0]
 8001278:	6b7b      	ldr	r3, [r7, #52]	; 0x34
 800127a:	685b      	ldr	r3, [r3, #4]
 800127c:	62bb      	str	r3, [r7, #40]	; 0x28
 800127e:	6b7b      	ldr	r3, [r7, #52]	; 0x34
 8001280:	685b      	ldr	r3, [r3, #4]
 8001282:	f043 4200 	orr.w	r2, r3, #2147483648	; 0x80000000
 8001286:	6b7b      	ldr	r3, [r7, #52]	; 0x34
 8001288:	605a      	str	r2, [r3, #4]
 800128a:	6b7b      	ldr	r3, [r7, #52]	; 0x34
 800128c:	2200      	movs	r2, #0
 800128e:	601a      	str	r2, [r3, #0]
 8001290:	4b13      	ldr	r3, [pc, #76]	; (80012e0 <pvPortMalloc+0x25c>)
 8001292:	681b      	ldr	r3, [r3, #0]
 8001294:	3301      	adds	r3, #1
 8001296:	4a12      	ldr	r2, [pc, #72]	; (80012e0 <pvPortMalloc+0x25c>)
 8001298:	6013      	str	r3, [r2, #0]
 800129a:	f004 f8a3 	bl	80053e4 <xTaskResumeAll>
 800129e:	6afb      	ldr	r3, [r7, #44]	; 0x2c
 80012a0:	f003 0307 	and.w	r3, r3, #7
 80012a4:	2b00      	cmp	r3, #0
 80012a6:	d00a      	beq.n	80012be <pvPortMalloc+0x23a>
 80012a8:	f04f 0350 	mov.w	r3, #80	; 0x50
 80012ac:	f383 8811 	msr	BASEPRI, r3
 80012b0:	f3bf 8f6f 	isb	sy
 80012b4:	f3bf 8f4f 	dsb	sy
 80012b8:	60bb      	str	r3, [r7, #8]
 80012ba:	bf00      	nop
 80012bc:	e7fe      	b.n	80012bc <pvPortMalloc+0x238>
 80012be:	6afb      	ldr	r3, [r7, #44]	; 0x2c
 80012c0:	4618      	mov	r0, r3
 80012c2:	3738      	adds	r7, #56	; 0x38
 80012c4:	46bd      	mov	sp, r7
 80012c6:	bd80      	pop	{r7, pc}
 80012c8:	20012cb8 			; <UNDEFINED> instruction: 0x20012cb8
 80012cc:	20012cbc 			; <UNDEFINED> instruction: 0x20012cbc
 80012d0:	20012cb0 			; <UNDEFINED> instruction: 0x20012cb0
 80012d4:	200000b0 	strhcs	r0, [r0], -r0	; <UNPREDICTABLE>
 80012d8:	20012caf 	andcs	r2, r1, pc, lsr #25
 80012dc:	20012cc0 	andcs	r2, r1, r0, asr #25
 80012e0:	20012cc4 	andcs	r2, r1, r4, asr #25

080012e4 <vPortFree>:
 80012e4:	b580      	push	{r7, lr}
 80012e6:	b088      	sub	sp, #32
 80012e8:	af00      	add	r7, sp, #0
 80012ea:	6078      	str	r0, [r7, #4]
 80012ec:	687b      	ldr	r3, [r7, #4]
 80012ee:	61fb      	str	r3, [r7, #28]
 80012f0:	687b      	ldr	r3, [r7, #4]
 80012f2:	2b00      	cmp	r3, #0
 80012f4:	d061      	beq.n	80013ba <vPortFree+0xd6>
 80012f6:	2308      	movs	r3, #8
 80012f8:	425b      	negs	r3, r3
 80012fa:	69fa      	ldr	r2, [r7, #28]
 80012fc:	4413      	add	r3, r2
 80012fe:	61fb      	str	r3, [r7, #28]
 8001300:	69fb      	ldr	r3, [r7, #28]
 8001302:	61bb      	str	r3, [r7, #24]
 8001304:	69bb      	ldr	r3, [r7, #24]
 8001306:	4a2f      	ldr	r2, [pc, #188]	; (80013c4 <vPortFree+0xe0>)
 8001308:	4293      	cmp	r3, r2
 800130a:	d305      	bcc.n	8001318 <vPortFree+0x34>
 800130c:	69bb      	ldr	r3, [r7, #24]
 800130e:	4a2e      	ldr	r2, [pc, #184]	; (80013c8 <vPortFree+0xe4>)
 8001310:	4293      	cmp	r3, r2
 8001312:	d801      	bhi.n	8001318 <vPortFree+0x34>
 8001314:	2301      	movs	r3, #1
 8001316:	e000      	b.n	800131a <vPortFree+0x36>
 8001318:	2300      	movs	r3, #0
 800131a:	2b00      	cmp	r3, #0
 800131c:	d10a      	bne.n	8001334 <vPortFree+0x50>
 800131e:	f04f 0350 	mov.w	r3, #80	; 0x50
 8001322:	f383 8811 	msr	BASEPRI, r3
 8001326:	f3bf 8f6f 	isb	sy
 800132a:	f3bf 8f4f 	dsb	sy
 800132e:	617b      	str	r3, [r7, #20]
 8001330:	bf00      	nop
 8001332:	e7fe      	b.n	8001332 <vPortFree+0x4e>
 8001334:	69bb      	ldr	r3, [r7, #24]
 8001336:	685b      	ldr	r3, [r3, #4]
 8001338:	2b00      	cmp	r3, #0
 800133a:	db0a      	blt.n	8001352 <vPortFree+0x6e>
 800133c:	f04f 0350 	mov.w	r3, #80	; 0x50
 8001340:	f383 8811 	msr	BASEPRI, r3
 8001344:	f3bf 8f6f 	isb	sy
 8001348:	f3bf 8f4f 	dsb	sy
 800134c:	613b      	str	r3, [r7, #16]
 800134e:	bf00      	nop
 8001350:	e7fe      	b.n	8001350 <vPortFree+0x6c>
 8001352:	69bb      	ldr	r3, [r7, #24]
 8001354:	681b      	ldr	r3, [r3, #0]
 8001356:	2b00      	cmp	r3, #0
 8001358:	d00a      	beq.n	8001370 <vPortFree+0x8c>
 800135a:	f04f 0350 	mov.w	r3, #80	; 0x50
 800135e:	f383 8811 	msr	BASEPRI, r3
 8001362:	f3bf 8f6f 	isb	sy
 8001366:	f3bf 8f4f 	dsb	sy
 800136a:	60fb      	str	r3, [r7, #12]
 800136c:	bf00      	nop
 800136e:	e7fe      	b.n	800136e <vPortFree+0x8a>
 8001370:	69bb      	ldr	r3, [r7, #24]
 8001372:	685b      	ldr	r3, [r3, #4]
 8001374:	0fdb      	lsrs	r3, r3, #31
 8001376:	f003 0301 	and.w	r3, r3, #1
 800137a:	b2db      	uxtb	r3, r3
 800137c:	2b00      	cmp	r3, #0
 800137e:	d01c      	beq.n	80013ba <vPortFree+0xd6>
 8001380:	69bb      	ldr	r3, [r7, #24]
 8001382:	681b      	ldr	r3, [r3, #0]
 8001384:	2b00      	cmp	r3, #0
 8001386:	d118      	bne.n	80013ba <vPortFree+0xd6>
 8001388:	69bb      	ldr	r3, [r7, #24]
 800138a:	685b      	ldr	r3, [r3, #4]
 800138c:	f023 4200 	bic.w	r2, r3, #2147483648	; 0x80000000
 8001390:	69bb      	ldr	r3, [r7, #24]
 8001392:	605a      	str	r2, [r3, #4]
 8001394:	f004 f818 	bl	80053c8 <vTaskSuspendAll>
 8001398:	69bb      	ldr	r3, [r7, #24]
 800139a:	685a      	ldr	r2, [r3, #4]
 800139c:	4b0b      	ldr	r3, [pc, #44]	; (80013cc <vPortFree+0xe8>)
 800139e:	681b      	ldr	r3, [r3, #0]
 80013a0:	4413      	add	r3, r2
 80013a2:	4a0a      	ldr	r2, [pc, #40]	; (80013cc <vPortFree+0xe8>)
 80013a4:	6013      	str	r3, [r2, #0]
 80013a6:	69b8      	ldr	r0, [r7, #24]
 80013a8:	f000 f8ce 	bl	8001548 <prvInsertBlockIntoFreeList>
 80013ac:	4b08      	ldr	r3, [pc, #32]	; (80013d0 <vPortFree+0xec>)
 80013ae:	681b      	ldr	r3, [r3, #0]
 80013b0:	3301      	adds	r3, #1
 80013b2:	4a07      	ldr	r2, [pc, #28]	; (80013d0 <vPortFree+0xec>)
 80013b4:	6013      	str	r3, [r2, #0]
 80013b6:	f004 f815 	bl	80053e4 <xTaskResumeAll>
 80013ba:	bf00      	nop
 80013bc:	3720      	adds	r7, #32
 80013be:	46bd      	mov	sp, r7
 80013c0:	bd80      	pop	{r7, pc}
 80013c2:	bf00      	nop
 80013c4:	200000b0 	strhcs	r0, [r0], -r0	; <UNPREDICTABLE>
 80013c8:	20012caf 	andcs	r2, r1, pc, lsr #25
 80013cc:	20012cbc 			; <UNDEFINED> instruction: 0x20012cbc
 80013d0:	20012cc8 	andcs	r2, r1, r8, asr #25

080013d4 <xPortGetFreeHeapSize>:
 80013d4:	b480      	push	{r7}
 80013d6:	af00      	add	r7, sp, #0
 80013d8:	4b03      	ldr	r3, [pc, #12]	; (80013e8 <xPortGetFreeHeapSize+0x14>)
 80013da:	681b      	ldr	r3, [r3, #0]
 80013dc:	4618      	mov	r0, r3
 80013de:	46bd      	mov	sp, r7
 80013e0:	f85d 7b04 	ldr.w	r7, [sp], #4
 80013e4:	4770      	bx	lr
 80013e6:	bf00      	nop
 80013e8:	20012cbc 			; <UNDEFINED> instruction: 0x20012cbc

080013ec <xPortGetMinimumEverFreeHeapSize>:
 80013ec:	b480      	push	{r7}
 80013ee:	af00      	add	r7, sp, #0
 80013f0:	4b03      	ldr	r3, [pc, #12]	; (8001400 <xPortGetMinimumEverFreeHeapSize+0x14>)
 80013f2:	681b      	ldr	r3, [r3, #0]
 80013f4:	4618      	mov	r0, r3
 80013f6:	46bd      	mov	sp, r7
 80013f8:	f85d 7b04 	ldr.w	r7, [sp], #4
 80013fc:	4770      	bx	lr
 80013fe:	bf00      	nop
 8001400:	20012cc0 	andcs	r2, r1, r0, asr #25

08001404 <xPortResetHeapMinimumEverFreeHeapSize>:
 8001404:	b480      	push	{r7}
 8001406:	af00      	add	r7, sp, #0
 8001408:	4b04      	ldr	r3, [pc, #16]	; (800141c <xPortResetHeapMinimumEverFreeHeapSize+0x18>)
 800140a:	681b      	ldr	r3, [r3, #0]
 800140c:	4a04      	ldr	r2, [pc, #16]	; (8001420 <xPortResetHeapMinimumEverFreeHeapSize+0x1c>)
 800140e:	6013      	str	r3, [r2, #0]
 8001410:	bf00      	nop
 8001412:	46bd      	mov	sp, r7
 8001414:	f85d 7b04 	ldr.w	r7, [sp], #4
 8001418:	4770      	bx	lr
 800141a:	bf00      	nop
 800141c:	20012cbc 			; <UNDEFINED> instruction: 0x20012cbc
 8001420:	20012cc0 	andcs	r2, r1, r0, asr #25

08001424 <vPortInitialiseBlocks>:
 8001424:	b480      	push	{r7}
 8001426:	af00      	add	r7, sp, #0
 8001428:	bf00      	nop
 800142a:	46bd      	mov	sp, r7
 800142c:	f85d 7b04 	ldr.w	r7, [sp], #4
 8001430:	4770      	bx	lr

08001432 <pvPortCalloc>:
 8001432:	b580      	push	{r7, lr}
 8001434:	b084      	sub	sp, #16
 8001436:	af00      	add	r7, sp, #0
 8001438:	6078      	str	r0, [r7, #4]
 800143a:	6039      	str	r1, [r7, #0]
 800143c:	2300      	movs	r3, #0
 800143e:	60fb      	str	r3, [r7, #12]
 8001440:	687b      	ldr	r3, [r7, #4]
 8001442:	2b00      	cmp	r3, #0
 8001444:	d009      	beq.n	800145a <pvPortCalloc+0x28>
 8001446:	f04f 32ff 	mov.w	r2, #4294967295	; 0xffffffff
 800144a:	687b      	ldr	r3, [r7, #4]
 800144c:	fbb2 f3f3 	udiv	r3, r2, r3
 8001450:	683a      	ldr	r2, [r7, #0]
 8001452:	429a      	cmp	r2, r3
 8001454:	d901      	bls.n	800145a <pvPortCalloc+0x28>
 8001456:	2301      	movs	r3, #1
 8001458:	e000      	b.n	800145c <pvPortCalloc+0x2a>
 800145a:	2300      	movs	r3, #0
 800145c:	2b00      	cmp	r3, #0
 800145e:	d113      	bne.n	8001488 <pvPortCalloc+0x56>
 8001460:	687b      	ldr	r3, [r7, #4]
 8001462:	683a      	ldr	r2, [r7, #0]
 8001464:	fb02 f303 	mul.w	r3, r2, r3
 8001468:	4618      	mov	r0, r3
 800146a:	f7ff fe0b 	bl	8001084 <pvPortMalloc>
 800146e:	60f8      	str	r0, [r7, #12]
 8001470:	68fb      	ldr	r3, [r7, #12]
 8001472:	2b00      	cmp	r3, #0
 8001474:	d008      	beq.n	8001488 <pvPortCalloc+0x56>
 8001476:	687b      	ldr	r3, [r7, #4]
 8001478:	683a      	ldr	r2, [r7, #0]
 800147a:	fb02 f303 	mul.w	r3, r2, r3
 800147e:	461a      	mov	r2, r3
 8001480:	2100      	movs	r1, #0
 8001482:	68f8      	ldr	r0, [r7, #12]
 8001484:	f006 fdb6 	bl	8007ff4 <memset>
 8001488:	68fb      	ldr	r3, [r7, #12]
 800148a:	4618      	mov	r0, r3
 800148c:	3710      	adds	r7, #16
 800148e:	46bd      	mov	sp, r7
 8001490:	bd80      	pop	{r7, pc}

08001492 <prvHeapInit>:
 8001492:	b480      	push	{r7}
 8001494:	b085      	sub	sp, #20
 8001496:	af00      	add	r7, sp, #0
 8001498:	f44f 3396 	mov.w	r3, #76800	; 0x12c00
 800149c:	60bb      	str	r3, [r7, #8]
 800149e:	4b25      	ldr	r3, [pc, #148]	; (8001534 <prvHeapInit+0xa2>)
 80014a0:	60fb      	str	r3, [r7, #12]
 80014a2:	68fb      	ldr	r3, [r7, #12]
 80014a4:	f003 0307 	and.w	r3, r3, #7
 80014a8:	2b00      	cmp	r3, #0
 80014aa:	d00c      	beq.n	80014c6 <prvHeapInit+0x34>
 80014ac:	68fb      	ldr	r3, [r7, #12]
 80014ae:	3307      	adds	r3, #7
 80014b0:	60fb      	str	r3, [r7, #12]
 80014b2:	68fb      	ldr	r3, [r7, #12]
 80014b4:	f023 0307 	bic.w	r3, r3, #7
 80014b8:	60fb      	str	r3, [r7, #12]
 80014ba:	68ba      	ldr	r2, [r7, #8]
 80014bc:	68fb      	ldr	r3, [r7, #12]
 80014be:	1ad3      	subs	r3, r2, r3
 80014c0:	4a1c      	ldr	r2, [pc, #112]	; (8001534 <prvHeapInit+0xa2>)
 80014c2:	4413      	add	r3, r2
 80014c4:	60bb      	str	r3, [r7, #8]
 80014c6:	68fb      	ldr	r3, [r7, #12]
 80014c8:	4a1b      	ldr	r2, [pc, #108]	; (8001538 <prvHeapInit+0xa6>)
 80014ca:	6013      	str	r3, [r2, #0]
 80014cc:	4b1a      	ldr	r3, [pc, #104]	; (8001538 <prvHeapInit+0xa6>)
 80014ce:	2200      	movs	r2, #0
 80014d0:	605a      	str	r2, [r3, #4]
 80014d2:	68fa      	ldr	r2, [r7, #12]
 80014d4:	68bb      	ldr	r3, [r7, #8]
 80014d6:	4413      	add	r3, r2
 80014d8:	607b      	str	r3, [r7, #4]
 80014da:	2208      	movs	r2, #8
 80014dc:	687b      	ldr	r3, [r7, #4]
 80014de:	1a9b      	subs	r3, r3, r2
 80014e0:	607b      	str	r3, [r7, #4]
 80014e2:	687b      	ldr	r3, [r7, #4]
 80014e4:	f023 0307 	bic.w	r3, r3, #7
 80014e8:	607b      	str	r3, [r7, #4]
 80014ea:	687b      	ldr	r3, [r7, #4]
 80014ec:	4a13      	ldr	r2, [pc, #76]	; (800153c <prvHeapInit+0xaa>)
 80014ee:	6013      	str	r3, [r2, #0]
 80014f0:	4b12      	ldr	r3, [pc, #72]	; (800153c <prvHeapInit+0xaa>)
 80014f2:	681b      	ldr	r3, [r3, #0]
 80014f4:	2200      	movs	r2, #0
 80014f6:	605a      	str	r2, [r3, #4]
 80014f8:	4b10      	ldr	r3, [pc, #64]	; (800153c <prvHeapInit+0xaa>)
 80014fa:	681b      	ldr	r3, [r3, #0]
 80014fc:	2200      	movs	r2, #0
 80014fe:	601a      	str	r2, [r3, #0]
 8001500:	68fb      	ldr	r3, [r7, #12]
 8001502:	603b      	str	r3, [r7, #0]
 8001504:	683b      	ldr	r3, [r7, #0]
 8001506:	687a      	ldr	r2, [r7, #4]
 8001508:	1ad2      	subs	r2, r2, r3
 800150a:	683b      	ldr	r3, [r7, #0]
 800150c:	605a      	str	r2, [r3, #4]
 800150e:	4b0b      	ldr	r3, [pc, #44]	; (800153c <prvHeapInit+0xaa>)
 8001510:	681a      	ldr	r2, [r3, #0]
 8001512:	683b      	ldr	r3, [r7, #0]
 8001514:	601a      	str	r2, [r3, #0]
 8001516:	683b      	ldr	r3, [r7, #0]
 8001518:	685b      	ldr	r3, [r3, #4]
 800151a:	4a09      	ldr	r2, [pc, #36]	; (8001540 <prvHeapInit+0xae>)
 800151c:	6013      	str	r3, [r2, #0]
 800151e:	683b      	ldr	r3, [r7, #0]
 8001520:	685b      	ldr	r3, [r3, #4]
 8001522:	4a08      	ldr	r2, [pc, #32]	; (8001544 <prvHeapInit+0xb2>)
 8001524:	6013      	str	r3, [r2, #0]
 8001526:	bf00      	nop
 8001528:	3714      	adds	r7, #20
 800152a:	46bd      	mov	sp, r7
 800152c:	f85d 7b04 	ldr.w	r7, [sp], #4
 8001530:	4770      	bx	lr
 8001532:	bf00      	nop
 8001534:	200000b0 	strhcs	r0, [r0], -r0	; <UNPREDICTABLE>
 8001538:	20012cb0 			; <UNDEFINED> instruction: 0x20012cb0
 800153c:	20012cb8 			; <UNDEFINED> instruction: 0x20012cb8
 8001540:	20012cc0 	andcs	r2, r1, r0, asr #25
 8001544:	20012cbc 			; <UNDEFINED> instruction: 0x20012cbc

08001548 <prvInsertBlockIntoFreeList>:
 8001548:	b480      	push	{r7}
 800154a:	b087      	sub	sp, #28
 800154c:	af00      	add	r7, sp, #0
 800154e:	6078      	str	r0, [r7, #4]
 8001550:	4b36      	ldr	r3, [pc, #216]	; (800162c <prvInsertBlockIntoFreeList+0xe4>)
 8001552:	617b      	str	r3, [r7, #20]
 8001554:	e002      	b.n	800155c <prvInsertBlockIntoFreeList+0x14>
 8001556:	697b      	ldr	r3, [r7, #20]
 8001558:	681b      	ldr	r3, [r3, #0]
 800155a:	617b      	str	r3, [r7, #20]
 800155c:	697b      	ldr	r3, [r7, #20]
 800155e:	681b      	ldr	r3, [r3, #0]
 8001560:	687a      	ldr	r2, [r7, #4]
 8001562:	429a      	cmp	r2, r3
 8001564:	d8f7      	bhi.n	8001556 <prvInsertBlockIntoFreeList+0xe>
 8001566:	697b      	ldr	r3, [r7, #20]
 8001568:	4a30      	ldr	r2, [pc, #192]	; (800162c <prvInsertBlockIntoFreeList+0xe4>)
 800156a:	4293      	cmp	r3, r2
 800156c:	d017      	beq.n	800159e <prvInsertBlockIntoFreeList+0x56>
 800156e:	697b      	ldr	r3, [r7, #20]
 8001570:	4a2f      	ldr	r2, [pc, #188]	; (8001630 <prvInsertBlockIntoFreeList+0xe8>)
 8001572:	4293      	cmp	r3, r2
 8001574:	d305      	bcc.n	8001582 <prvInsertBlockIntoFreeList+0x3a>
 8001576:	697b      	ldr	r3, [r7, #20]
 8001578:	4a2e      	ldr	r2, [pc, #184]	; (8001634 <prvInsertBlockIntoFreeList+0xec>)
 800157a:	4293      	cmp	r3, r2
 800157c:	d801      	bhi.n	8001582 <prvInsertBlockIntoFreeList+0x3a>
 800157e:	2301      	movs	r3, #1
 8001580:	e000      	b.n	8001584 <prvInsertBlockIntoFreeList+0x3c>
 8001582:	2300      	movs	r3, #0
 8001584:	2b00      	cmp	r3, #0
 8001586:	d10a      	bne.n	800159e <prvInsertBlockIntoFreeList+0x56>
 8001588:	f04f 0350 	mov.w	r3, #80	; 0x50
 800158c:	f383 8811 	msr	BASEPRI, r3
 8001590:	f3bf 8f6f 	isb	sy
 8001594:	f3bf 8f4f 	dsb	sy
 8001598:	60fb      	str	r3, [r7, #12]
 800159a:	bf00      	nop
 800159c:	e7fe      	b.n	800159c <prvInsertBlockIntoFreeList+0x54>
 800159e:	697b      	ldr	r3, [r7, #20]
 80015a0:	613b      	str	r3, [r7, #16]
 80015a2:	697b      	ldr	r3, [r7, #20]
 80015a4:	685b      	ldr	r3, [r3, #4]
 80015a6:	693a      	ldr	r2, [r7, #16]
 80015a8:	4413      	add	r3, r2
 80015aa:	687a      	ldr	r2, [r7, #4]
 80015ac:	429a      	cmp	r2, r3
 80015ae:	d108      	bne.n	80015c2 <prvInsertBlockIntoFreeList+0x7a>
 80015b0:	697b      	ldr	r3, [r7, #20]
 80015b2:	685a      	ldr	r2, [r3, #4]
 80015b4:	687b      	ldr	r3, [r7, #4]
 80015b6:	685b      	ldr	r3, [r3, #4]
 80015b8:	441a      	add	r2, r3
 80015ba:	697b      	ldr	r3, [r7, #20]
 80015bc:	605a      	str	r2, [r3, #4]
 80015be:	697b      	ldr	r3, [r7, #20]
 80015c0:	607b      	str	r3, [r7, #4]
 80015c2:	687b      	ldr	r3, [r7, #4]
 80015c4:	613b      	str	r3, [r7, #16]
 80015c6:	687b      	ldr	r3, [r7, #4]
 80015c8:	685b      	ldr	r3, [r3, #4]
 80015ca:	693a      	ldr	r2, [r7, #16]
 80015cc:	441a      	add	r2, r3
 80015ce:	697b      	ldr	r3, [r7, #20]
 80015d0:	681b      	ldr	r3, [r3, #0]
 80015d2:	429a      	cmp	r2, r3
 80015d4:	d118      	bne.n	8001608 <prvInsertBlockIntoFreeList+0xc0>
 80015d6:	697b      	ldr	r3, [r7, #20]
 80015d8:	681a      	ldr	r2, [r3, #0]
 80015da:	4b17      	ldr	r3, [pc, #92]	; (8001638 <prvInsertBlockIntoFreeList+0xf0>)
 80015dc:	681b      	ldr	r3, [r3, #0]
 80015de:	429a      	cmp	r2, r3
 80015e0:	d00d      	beq.n	80015fe <prvInsertBlockIntoFreeList+0xb6>
 80015e2:	687b      	ldr	r3, [r7, #4]
 80015e4:	685a      	ldr	r2, [r3, #4]
 80015e6:	697b      	ldr	r3, [r7, #20]
 80015e8:	681b      	ldr	r3, [r3, #0]
 80015ea:	685b      	ldr	r3, [r3, #4]
 80015ec:	441a      	add	r2, r3
 80015ee:	687b      	ldr	r3, [r7, #4]
 80015f0:	605a      	str	r2, [r3, #4]
 80015f2:	697b      	ldr	r3, [r7, #20]
 80015f4:	681b      	ldr	r3, [r3, #0]
 80015f6:	681a      	ldr	r2, [r3, #0]
 80015f8:	687b      	ldr	r3, [r7, #4]
 80015fa:	601a      	str	r2, [r3, #0]
 80015fc:	e008      	b.n	8001610 <prvInsertBlockIntoFreeList+0xc8>
 80015fe:	4b0e      	ldr	r3, [pc, #56]	; (8001638 <prvInsertBlockIntoFreeList+0xf0>)
 8001600:	681a      	ldr	r2, [r3, #0]
 8001602:	687b      	ldr	r3, [r7, #4]
 8001604:	601a      	str	r2, [r3, #0]
 8001606:	e003      	b.n	8001610 <prvInsertBlockIntoFreeList+0xc8>
 8001608:	697b      	ldr	r3, [r7, #20]
 800160a:	681a      	ldr	r2, [r3, #0]
 800160c:	687b      	ldr	r3, [r7, #4]
 800160e:	601a      	str	r2, [r3, #0]
 8001610:	697a      	ldr	r2, [r7, #20]
 8001612:	687b      	ldr	r3, [r7, #4]
 8001614:	429a      	cmp	r2, r3
 8001616:	d002      	beq.n	800161e <prvInsertBlockIntoFreeList+0xd6>
 8001618:	697b      	ldr	r3, [r7, #20]
 800161a:	687a      	ldr	r2, [r7, #4]
 800161c:	601a      	str	r2, [r3, #0]
 800161e:	bf00      	nop
 8001620:	371c      	adds	r7, #28
 8001622:	46bd      	mov	sp, r7
 8001624:	f85d 7b04 	ldr.w	r7, [sp], #4
 8001628:	4770      	bx	lr
 800162a:	bf00      	nop
 800162c:	20012cb0 			; <UNDEFINED> instruction: 0x20012cb0
 8001630:	200000b0 	strhcs	r0, [r0], -r0	; <UNPREDICTABLE>
 8001634:	20012caf 	andcs	r2, r1, pc, lsr #25
 8001638:	20012cb8 			; <UNDEFINED> instruction: 0x20012cb8

0800163c <vPortGetHeapStats>:
 800163c:	b580      	push	{r7, lr}
 800163e:	b086      	sub	sp, #24
 8001640:	af00      	add	r7, sp, #0
 8001642:	6078      	str	r0, [r7, #4]
 8001644:	2300      	movs	r3, #0
 8001646:	613b      	str	r3, [r7, #16]
 8001648:	2300      	movs	r3, #0
 800164a:	60fb      	str	r3, [r7, #12]
 800164c:	f04f 33ff 	mov.w	r3, #4294967295	; 0xffffffff
 8001650:	60bb      	str	r3, [r7, #8]
 8001652:	f003 feb9 	bl	80053c8 <vTaskSuspendAll>
 8001656:	4b22      	ldr	r3, [pc, #136]	; (80016e0 <vPortGetHeapStats+0xa4>)
 8001658:	681b      	ldr	r3, [r3, #0]
 800165a:	617b      	str	r3, [r7, #20]
 800165c:	697b      	ldr	r3, [r7, #20]
 800165e:	2b00      	cmp	r3, #0
 8001660:	d01b      	beq.n	800169a <vPortGetHeapStats+0x5e>
 8001662:	e015      	b.n	8001690 <vPortGetHeapStats+0x54>
 8001664:	693b      	ldr	r3, [r7, #16]
 8001666:	3301      	adds	r3, #1
 8001668:	613b      	str	r3, [r7, #16]
 800166a:	697b      	ldr	r3, [r7, #20]
 800166c:	685b      	ldr	r3, [r3, #4]
 800166e:	68fa      	ldr	r2, [r7, #12]
 8001670:	429a      	cmp	r2, r3
 8001672:	d202      	bcs.n	800167a <vPortGetHeapStats+0x3e>
 8001674:	697b      	ldr	r3, [r7, #20]
 8001676:	685b      	ldr	r3, [r3, #4]
 8001678:	60fb      	str	r3, [r7, #12]
 800167a:	697b      	ldr	r3, [r7, #20]
 800167c:	685b      	ldr	r3, [r3, #4]
 800167e:	68ba      	ldr	r2, [r7, #8]
 8001680:	429a      	cmp	r2, r3
 8001682:	d902      	bls.n	800168a <vPortGetHeapStats+0x4e>
 8001684:	697b      	ldr	r3, [r7, #20]
 8001686:	685b      	ldr	r3, [r3, #4]
 8001688:	60bb      	str	r3, [r7, #8]
 800168a:	697b      	ldr	r3, [r7, #20]
 800168c:	681b      	ldr	r3, [r3, #0]
 800168e:	617b      	str	r3, [r7, #20]
 8001690:	4b14      	ldr	r3, [pc, #80]	; (80016e4 <vPortGetHeapStats+0xa8>)
 8001692:	681b      	ldr	r3, [r3, #0]
 8001694:	697a      	ldr	r2, [r7, #20]
 8001696:	429a      	cmp	r2, r3
 8001698:	d1e4      	bne.n	8001664 <vPortGetHeapStats+0x28>
 800169a:	f003 fea3 	bl	80053e4 <xTaskResumeAll>
 800169e:	687b      	ldr	r3, [r7, #4]
 80016a0:	68fa      	ldr	r2, [r7, #12]
 80016a2:	605a      	str	r2, [r3, #4]
 80016a4:	687b      	ldr	r3, [r7, #4]
 80016a6:	68ba      	ldr	r2, [r7, #8]
 80016a8:	609a      	str	r2, [r3, #8]
 80016aa:	687b      	ldr	r3, [r7, #4]
 80016ac:	693a      	ldr	r2, [r7, #16]
 80016ae:	60da      	str	r2, [r3, #12]
 80016b0:	f7ff fbd4 	bl	8000e5c <vPortEnterCritical>
 80016b4:	4b0c      	ldr	r3, [pc, #48]	; (80016e8 <vPortGetHeapStats+0xac>)
 80016b6:	681a      	ldr	r2, [r3, #0]
 80016b8:	687b      	ldr	r3, [r7, #4]
 80016ba:	601a      	str	r2, [r3, #0]
 80016bc:	4b0b      	ldr	r3, [pc, #44]	; (80016ec <vPortGetHeapStats+0xb0>)
 80016be:	681a      	ldr	r2, [r3, #0]
 80016c0:	687b      	ldr	r3, [r7, #4]
 80016c2:	615a      	str	r2, [r3, #20]
 80016c4:	4b0a      	ldr	r3, [pc, #40]	; (80016f0 <vPortGetHeapStats+0xb4>)
 80016c6:	681a      	ldr	r2, [r3, #0]
 80016c8:	687b      	ldr	r3, [r7, #4]
 80016ca:	619a      	str	r2, [r3, #24]
 80016cc:	4b09      	ldr	r3, [pc, #36]	; (80016f4 <vPortGetHeapStats+0xb8>)
 80016ce:	681a      	ldr	r2, [r3, #0]
 80016d0:	687b      	ldr	r3, [r7, #4]
 80016d2:	611a      	str	r2, [r3, #16]
 80016d4:	f7ff fbf2 	bl	8000ebc <vPortExitCritical>
 80016d8:	bf00      	nop
 80016da:	3718      	adds	r7, #24
 80016dc:	46bd      	mov	sp, r7
 80016de:	bd80      	pop	{r7, pc}
 80016e0:	20012cb0 			; <UNDEFINED> instruction: 0x20012cb0
 80016e4:	20012cb8 			; <UNDEFINED> instruction: 0x20012cb8
 80016e8:	20012cbc 			; <UNDEFINED> instruction: 0x20012cbc
 80016ec:	20012cc4 	andcs	r2, r1, r4, asr #25
 80016f0:	20012cc8 	andcs	r2, r1, r8, asr #25
 80016f4:	20012cc0 	andcs	r2, r1, r0, asr #25

080016f8 <vPortHeapResetState>:
 80016f8:	b480      	push	{r7}
 80016fa:	af00      	add	r7, sp, #0
 80016fc:	4b09      	ldr	r3, [pc, #36]	; (8001724 <vPortHeapResetState+0x2c>)
 80016fe:	2200      	movs	r2, #0
 8001700:	601a      	str	r2, [r3, #0]
 8001702:	4b09      	ldr	r3, [pc, #36]	; (8001728 <vPortHeapResetState+0x30>)
 8001704:	2200      	movs	r2, #0
 8001706:	601a      	str	r2, [r3, #0]
 8001708:	4b08      	ldr	r3, [pc, #32]	; (800172c <vPortHeapResetState+0x34>)
 800170a:	2200      	movs	r2, #0
 800170c:	601a      	str	r2, [r3, #0]
 800170e:	4b08      	ldr	r3, [pc, #32]	; (8001730 <vPortHeapResetState+0x38>)
 8001710:	2200      	movs	r2, #0
 8001712:	601a      	str	r2, [r3, #0]
 8001714:	4b07      	ldr	r3, [pc, #28]	; (8001734 <vPortHeapResetState+0x3c>)
 8001716:	2200      	movs	r2, #0
 8001718:	601a      	str	r2, [r3, #0]
 800171a:	bf00      	nop
 800171c:	46bd      	mov	sp, r7
 800171e:	f85d 7b04 	ldr.w	r7, [sp], #4
 8001722:	4770      	bx	lr
 8001724:	20012cb8 			; <UNDEFINED> instruction: 0x20012cb8
 8001728:	20012cbc 			; <UNDEFINED> instruction: 0x20012cbc
 800172c:	20012cc0 	andcs	r2, r1, r0, asr #25
 8001730:	20012cc4 	andcs	r2, r1, r4, asr #25
 8001734:	20012cc8 	andcs	r2, r1, r8, asr #25

08001738 <xEventGroupCreate>:
 8001738:	b580      	push	{r7, lr}
 800173a:	b082      	sub	sp, #8
 800173c:	af00      	add	r7, sp, #0
 800173e:	201c      	movs	r0, #28
 8001740:	f7ff fca0 	bl	8001084 <pvPortMalloc>
 8001744:	6078      	str	r0, [r7, #4]
 8001746:	687b      	ldr	r3, [r7, #4]
 8001748:	2b00      	cmp	r3, #0
 800174a:	d007      	beq.n	800175c <xEventGroupCreate+0x24>
 800174c:	687b      	ldr	r3, [r7, #4]
 800174e:	2200      	movs	r2, #0
 8001750:	601a      	str	r2, [r3, #0]
 8001752:	687b      	ldr	r3, [r7, #4]
 8001754:	3304      	adds	r3, #4
 8001756:	4618      	mov	r0, r3
 8001758:	f000 fb0a 	bl	8001d70 <vListInitialise>
 800175c:	687b      	ldr	r3, [r7, #4]
 800175e:	4618      	mov	r0, r3
 8001760:	3708      	adds	r7, #8
 8001762:	46bd      	mov	sp, r7
 8001764:	bd80      	pop	{r7, pc}

08001766 <xEventGroupSync>:
 8001766:	b580      	push	{r7, lr}
 8001768:	b08c      	sub	sp, #48	; 0x30
 800176a:	af00      	add	r7, sp, #0
 800176c:	60f8      	str	r0, [r7, #12]
 800176e:	60b9      	str	r1, [r7, #8]
 8001770:	607a      	str	r2, [r7, #4]
 8001772:	603b      	str	r3, [r7, #0]
 8001774:	68fb      	ldr	r3, [r7, #12]
 8001776:	62bb      	str	r3, [r7, #40]	; 0x28
 8001778:	2300      	movs	r3, #0
 800177a:	627b      	str	r3, [r7, #36]	; 0x24
 800177c:	687b      	ldr	r3, [r7, #4]
 800177e:	f003 437f 	and.w	r3, r3, #4278190080	; 0xff000000
 8001782:	2b00      	cmp	r3, #0
 8001784:	d00a      	beq.n	800179c <xEventGroupSync+0x36>
 8001786:	f04f 0350 	mov.w	r3, #80	; 0x50
 800178a:	f383 8811 	msr	BASEPRI, r3
 800178e:	f3bf 8f6f 	isb	sy
 8001792:	f3bf 8f4f 	dsb	sy
 8001796:	61bb      	str	r3, [r7, #24]
 8001798:	bf00      	nop
 800179a:	e7fe      	b.n	800179a <xEventGroupSync+0x34>
 800179c:	687b      	ldr	r3, [r7, #4]
 800179e:	2b00      	cmp	r3, #0
 80017a0:	d10a      	bne.n	80017b8 <xEventGroupSync+0x52>
 80017a2:	f04f 0350 	mov.w	r3, #80	; 0x50
 80017a6:	f383 8811 	msr	BASEPRI, r3
 80017aa:	f3bf 8f6f 	isb	sy
 80017ae:	f3bf 8f4f 	dsb	sy
 80017b2:	617b      	str	r3, [r7, #20]
 80017b4:	bf00      	nop
 80017b6:	e7fe      	b.n	80017b6 <xEventGroupSync+0x50>
 80017b8:	f004 fe8c 	bl	80064d4 <xTaskGetSchedulerState>
 80017bc:	4603      	mov	r3, r0
 80017be:	2b00      	cmp	r3, #0
 80017c0:	d102      	bne.n	80017c8 <xEventGroupSync+0x62>
 80017c2:	683b      	ldr	r3, [r7, #0]
 80017c4:	2b00      	cmp	r3, #0
 80017c6:	d101      	bne.n	80017cc <xEventGroupSync+0x66>
 80017c8:	2301      	movs	r3, #1
 80017ca:	e000      	b.n	80017ce <xEventGroupSync+0x68>
 80017cc:	2300      	movs	r3, #0
 80017ce:	2b00      	cmp	r3, #0
 80017d0:	d10a      	bne.n	80017e8 <xEventGroupSync+0x82>
 80017d2:	f04f 0350 	mov.w	r3, #80	; 0x50
 80017d6:	f383 8811 	msr	BASEPRI, r3
 80017da:	f3bf 8f6f 	isb	sy
 80017de:	f3bf 8f4f 	dsb	sy
 80017e2:	613b      	str	r3, [r7, #16]
 80017e4:	bf00      	nop
 80017e6:	e7fe      	b.n	80017e6 <xEventGroupSync+0x80>
 80017e8:	f003 fdee 	bl	80053c8 <vTaskSuspendAll>
 80017ec:	6abb      	ldr	r3, [r7, #40]	; 0x28
 80017ee:	681b      	ldr	r3, [r3, #0]
 80017f0:	623b      	str	r3, [r7, #32]
 80017f2:	68b9      	ldr	r1, [r7, #8]
 80017f4:	68f8      	ldr	r0, [r7, #12]
 80017f6:	f000 f98f 	bl	8001b18 <xEventGroupSetBits>
 80017fa:	6a3a      	ldr	r2, [r7, #32]
 80017fc:	68bb      	ldr	r3, [r7, #8]
 80017fe:	431a      	orrs	r2, r3
 8001800:	687b      	ldr	r3, [r7, #4]
 8001802:	4013      	ands	r3, r2
 8001804:	687a      	ldr	r2, [r7, #4]
 8001806:	429a      	cmp	r2, r3
 8001808:	d10d      	bne.n	8001826 <xEventGroupSync+0xc0>
 800180a:	6a3a      	ldr	r2, [r7, #32]
 800180c:	68bb      	ldr	r3, [r7, #8]
 800180e:	4313      	orrs	r3, r2
 8001810:	62fb      	str	r3, [r7, #44]	; 0x2c
 8001812:	6abb      	ldr	r3, [r7, #40]	; 0x28
 8001814:	681a      	ldr	r2, [r3, #0]
 8001816:	687b      	ldr	r3, [r7, #4]
 8001818:	43db      	mvns	r3, r3
 800181a:	401a      	ands	r2, r3
 800181c:	6abb      	ldr	r3, [r7, #40]	; 0x28
 800181e:	601a      	str	r2, [r3, #0]
 8001820:	2300      	movs	r3, #0
 8001822:	603b      	str	r3, [r7, #0]
 8001824:	e013      	b.n	800184e <xEventGroupSync+0xe8>
 8001826:	683b      	ldr	r3, [r7, #0]
 8001828:	2b00      	cmp	r3, #0
 800182a:	d00b      	beq.n	8001844 <xEventGroupSync+0xde>
 800182c:	6abb      	ldr	r3, [r7, #40]	; 0x28
 800182e:	1d18      	adds	r0, r3, #4
 8001830:	687b      	ldr	r3, [r7, #4]
 8001832:	f043 63a0 	orr.w	r3, r3, #83886080	; 0x5000000
 8001836:	683a      	ldr	r2, [r7, #0]
 8001838:	4619      	mov	r1, r3
 800183a:	f004 f97f 	bl	8005b3c <vTaskPlaceOnUnorderedEventList>
 800183e:	2300      	movs	r3, #0
 8001840:	62fb      	str	r3, [r7, #44]	; 0x2c
 8001842:	e004      	b.n	800184e <xEventGroupSync+0xe8>
 8001844:	6abb      	ldr	r3, [r7, #40]	; 0x28
 8001846:	681b      	ldr	r3, [r3, #0]
 8001848:	62fb      	str	r3, [r7, #44]	; 0x2c
 800184a:	2301      	movs	r3, #1
 800184c:	627b      	str	r3, [r7, #36]	; 0x24
 800184e:	f003 fdc9 	bl	80053e4 <xTaskResumeAll>
 8001852:	61f8      	str	r0, [r7, #28]
 8001854:	683b      	ldr	r3, [r7, #0]
 8001856:	2b00      	cmp	r3, #0
 8001858:	d02c      	beq.n	80018b4 <xEventGroupSync+0x14e>
 800185a:	69fb      	ldr	r3, [r7, #28]
 800185c:	2b00      	cmp	r3, #0
 800185e:	d107      	bne.n	8001870 <xEventGroupSync+0x10a>
 8001860:	4b17      	ldr	r3, [pc, #92]	; (80018c0 <xEventGroupSync+0x15a>)
 8001862:	f04f 5280 	mov.w	r2, #268435456	; 0x10000000
 8001866:	601a      	str	r2, [r3, #0]
 8001868:	f3bf 8f4f 	dsb	sy
 800186c:	f3bf 8f6f 	isb	sy
 8001870:	f005 f84e 	bl	8006910 <uxTaskResetEventItemValue>
 8001874:	62f8      	str	r0, [r7, #44]	; 0x2c
 8001876:	6afb      	ldr	r3, [r7, #44]	; 0x2c
 8001878:	f003 7300 	and.w	r3, r3, #33554432	; 0x2000000
 800187c:	2b00      	cmp	r3, #0
 800187e:	d115      	bne.n	80018ac <xEventGroupSync+0x146>
 8001880:	f7ff faec 	bl	8000e5c <vPortEnterCritical>
 8001884:	6abb      	ldr	r3, [r7, #40]	; 0x28
 8001886:	681b      	ldr	r3, [r3, #0]
 8001888:	62fb      	str	r3, [r7, #44]	; 0x2c
 800188a:	6afa      	ldr	r2, [r7, #44]	; 0x2c
 800188c:	687b      	ldr	r3, [r7, #4]
 800188e:	4013      	ands	r3, r2
 8001890:	687a      	ldr	r2, [r7, #4]
 8001892:	429a      	cmp	r2, r3
 8001894:	d106      	bne.n	80018a4 <xEventGroupSync+0x13e>
 8001896:	6abb      	ldr	r3, [r7, #40]	; 0x28
 8001898:	681a      	ldr	r2, [r3, #0]
 800189a:	687b      	ldr	r3, [r7, #4]
 800189c:	43db      	mvns	r3, r3
 800189e:	401a      	ands	r2, r3
 80018a0:	6abb      	ldr	r3, [r7, #40]	; 0x28
 80018a2:	601a      	str	r2, [r3, #0]
 80018a4:	f7ff fb0a 	bl	8000ebc <vPortExitCritical>
 80018a8:	2301      	movs	r3, #1
 80018aa:	627b      	str	r3, [r7, #36]	; 0x24
 80018ac:	6afb      	ldr	r3, [r7, #44]	; 0x2c
 80018ae:	f023 437f 	bic.w	r3, r3, #4278190080	; 0xff000000
 80018b2:	62fb      	str	r3, [r7, #44]	; 0x2c
 80018b4:	6afb      	ldr	r3, [r7, #44]	; 0x2c
 80018b6:	4618      	mov	r0, r3
 80018b8:	3730      	adds	r7, #48	; 0x30
 80018ba:	46bd      	mov	sp, r7
 80018bc:	bd80      	pop	{r7, pc}
 80018be:	bf00      	nop
 80018c0:	e000ed04 	and	lr, r0, r4, lsl #26

080018c4 <xEventGroupWaitBits>:
 80018c4:	b580      	push	{r7, lr}
 80018c6:	b090      	sub	sp, #64	; 0x40
 80018c8:	af00      	add	r7, sp, #0
 80018ca:	60f8      	str	r0, [r7, #12]
 80018cc:	60b9      	str	r1, [r7, #8]
 80018ce:	607a      	str	r2, [r7, #4]
 80018d0:	603b      	str	r3, [r7, #0]
 80018d2:	68fb      	ldr	r3, [r7, #12]
 80018d4:	637b      	str	r3, [r7, #52]	; 0x34
 80018d6:	2300      	movs	r3, #0
 80018d8:	63bb      	str	r3, [r7, #56]	; 0x38
 80018da:	2300      	movs	r3, #0
 80018dc:	633b      	str	r3, [r7, #48]	; 0x30
 80018de:	68fb      	ldr	r3, [r7, #12]
 80018e0:	2b00      	cmp	r3, #0
 80018e2:	d10a      	bne.n	80018fa <xEventGroupWaitBits+0x36>
 80018e4:	f04f 0350 	mov.w	r3, #80	; 0x50
 80018e8:	f383 8811 	msr	BASEPRI, r3
 80018ec:	f3bf 8f6f 	isb	sy
 80018f0:	f3bf 8f4f 	dsb	sy
 80018f4:	623b      	str	r3, [r7, #32]
 80018f6:	bf00      	nop
 80018f8:	e7fe      	b.n	80018f8 <xEventGroupWaitBits+0x34>
 80018fa:	68bb      	ldr	r3, [r7, #8]
 80018fc:	f003 437f 	and.w	r3, r3, #4278190080	; 0xff000000
 8001900:	2b00      	cmp	r3, #0
 8001902:	d00a      	beq.n	800191a <xEventGroupWaitBits+0x56>
 8001904:	f04f 0350 	mov.w	r3, #80	; 0x50
 8001908:	f383 8811 	msr	BASEPRI, r3
 800190c:	f3bf 8f6f 	isb	sy
 8001910:	f3bf 8f4f 	dsb	sy
 8001914:	61fb      	str	r3, [r7, #28]
 8001916:	bf00      	nop
 8001918:	e7fe      	b.n	8001918 <xEventGroupWaitBits+0x54>
 800191a:	68bb      	ldr	r3, [r7, #8]
 800191c:	2b00      	cmp	r3, #0
 800191e:	d10a      	bne.n	8001936 <xEventGroupWaitBits+0x72>
 8001920:	f04f 0350 	mov.w	r3, #80	; 0x50
 8001924:	f383 8811 	msr	BASEPRI, r3
 8001928:	f3bf 8f6f 	isb	sy
 800192c:	f3bf 8f4f 	dsb	sy
 8001930:	61bb      	str	r3, [r7, #24]
 8001932:	bf00      	nop
 8001934:	e7fe      	b.n	8001934 <xEventGroupWaitBits+0x70>
 8001936:	f004 fdcd 	bl	80064d4 <xTaskGetSchedulerState>
 800193a:	4603      	mov	r3, r0
 800193c:	2b00      	cmp	r3, #0
 800193e:	d102      	bne.n	8001946 <xEventGroupWaitBits+0x82>
 8001940:	6cbb      	ldr	r3, [r7, #72]	; 0x48
 8001942:	2b00      	cmp	r3, #0
 8001944:	d101      	bne.n	800194a <xEventGroupWaitBits+0x86>
 8001946:	2301      	movs	r3, #1
 8001948:	e000      	b.n	800194c <xEventGroupWaitBits+0x88>
 800194a:	2300      	movs	r3, #0
 800194c:	2b00      	cmp	r3, #0
 800194e:	d10a      	bne.n	8001966 <xEventGroupWaitBits+0xa2>
 8001950:	f04f 0350 	mov.w	r3, #80	; 0x50
 8001954:	f383 8811 	msr	BASEPRI, r3
 8001958:	f3bf 8f6f 	isb	sy
 800195c:	f3bf 8f4f 	dsb	sy
 8001960:	617b      	str	r3, [r7, #20]
 8001962:	bf00      	nop
 8001964:	e7fe      	b.n	8001964 <xEventGroupWaitBits+0xa0>
 8001966:	f003 fd2f 	bl	80053c8 <vTaskSuspendAll>
 800196a:	6b7b      	ldr	r3, [r7, #52]	; 0x34
 800196c:	681b      	ldr	r3, [r3, #0]
 800196e:	62fb      	str	r3, [r7, #44]	; 0x2c
 8001970:	683a      	ldr	r2, [r7, #0]
 8001972:	68b9      	ldr	r1, [r7, #8]
 8001974:	6af8      	ldr	r0, [r7, #44]	; 0x2c
 8001976:	f000 f9b5 	bl	8001ce4 <prvTestWaitCondition>
 800197a:	62b8      	str	r0, [r7, #40]	; 0x28
 800197c:	6abb      	ldr	r3, [r7, #40]	; 0x28
 800197e:	2b00      	cmp	r3, #0
 8001980:	d00e      	beq.n	80019a0 <xEventGroupWaitBits+0xdc>
 8001982:	6afb      	ldr	r3, [r7, #44]	; 0x2c
 8001984:	63fb      	str	r3, [r7, #60]	; 0x3c
 8001986:	2300      	movs	r3, #0
 8001988:	64bb      	str	r3, [r7, #72]	; 0x48
 800198a:	687b      	ldr	r3, [r7, #4]
 800198c:	2b00      	cmp	r3, #0
 800198e:	d028      	beq.n	80019e2 <xEventGroupWaitBits+0x11e>
 8001990:	6b7b      	ldr	r3, [r7, #52]	; 0x34
 8001992:	681a      	ldr	r2, [r3, #0]
 8001994:	68bb      	ldr	r3, [r7, #8]
 8001996:	43db      	mvns	r3, r3
 8001998:	401a      	ands	r2, r3
 800199a:	6b7b      	ldr	r3, [r7, #52]	; 0x34
 800199c:	601a      	str	r2, [r3, #0]
 800199e:	e020      	b.n	80019e2 <xEventGroupWaitBits+0x11e>
 80019a0:	6cbb      	ldr	r3, [r7, #72]	; 0x48
 80019a2:	2b00      	cmp	r3, #0
 80019a4:	d104      	bne.n	80019b0 <xEventGroupWaitBits+0xec>
 80019a6:	6afb      	ldr	r3, [r7, #44]	; 0x2c
 80019a8:	63fb      	str	r3, [r7, #60]	; 0x3c
 80019aa:	2301      	movs	r3, #1
 80019ac:	633b      	str	r3, [r7, #48]	; 0x30
 80019ae:	e018      	b.n	80019e2 <xEventGroupWaitBits+0x11e>
 80019b0:	687b      	ldr	r3, [r7, #4]
 80019b2:	2b00      	cmp	r3, #0
 80019b4:	d003      	beq.n	80019be <xEventGroupWaitBits+0xfa>
 80019b6:	6bbb      	ldr	r3, [r7, #56]	; 0x38
 80019b8:	f043 7380 	orr.w	r3, r3, #16777216	; 0x1000000
 80019bc:	63bb      	str	r3, [r7, #56]	; 0x38
 80019be:	683b      	ldr	r3, [r7, #0]
 80019c0:	2b00      	cmp	r3, #0
 80019c2:	d003      	beq.n	80019cc <xEventGroupWaitBits+0x108>
 80019c4:	6bbb      	ldr	r3, [r7, #56]	; 0x38
 80019c6:	f043 6380 	orr.w	r3, r3, #67108864	; 0x4000000
 80019ca:	63bb      	str	r3, [r7, #56]	; 0x38
 80019cc:	6b7b      	ldr	r3, [r7, #52]	; 0x34
 80019ce:	1d18      	adds	r0, r3, #4
 80019d0:	68ba      	ldr	r2, [r7, #8]
 80019d2:	6bbb      	ldr	r3, [r7, #56]	; 0x38
 80019d4:	4313      	orrs	r3, r2
 80019d6:	6cba      	ldr	r2, [r7, #72]	; 0x48
 80019d8:	4619      	mov	r1, r3
 80019da:	f004 f8af 	bl	8005b3c <vTaskPlaceOnUnorderedEventList>
 80019de:	2300      	movs	r3, #0
 80019e0:	63fb      	str	r3, [r7, #60]	; 0x3c
 80019e2:	f003 fcff 	bl	80053e4 <xTaskResumeAll>
 80019e6:	6278      	str	r0, [r7, #36]	; 0x24
 80019e8:	6cbb      	ldr	r3, [r7, #72]	; 0x48
 80019ea:	2b00      	cmp	r3, #0
 80019ec:	d031      	beq.n	8001a52 <xEventGroupWaitBits+0x18e>
 80019ee:	6a7b      	ldr	r3, [r7, #36]	; 0x24
 80019f0:	2b00      	cmp	r3, #0
 80019f2:	d107      	bne.n	8001a04 <xEventGroupWaitBits+0x140>
 80019f4:	4b19      	ldr	r3, [pc, #100]	; (8001a5c <xEventGroupWaitBits+0x198>)
 80019f6:	f04f 5280 	mov.w	r2, #268435456	; 0x10000000
 80019fa:	601a      	str	r2, [r3, #0]
 80019fc:	f3bf 8f4f 	dsb	sy
 8001a00:	f3bf 8f6f 	isb	sy
 8001a04:	f004 ff84 	bl	8006910 <uxTaskResetEventItemValue>
 8001a08:	63f8      	str	r0, [r7, #60]	; 0x3c
 8001a0a:	6bfb      	ldr	r3, [r7, #60]	; 0x3c
 8001a0c:	f003 7300 	and.w	r3, r3, #33554432	; 0x2000000
 8001a10:	2b00      	cmp	r3, #0
 8001a12:	d11a      	bne.n	8001a4a <xEventGroupWaitBits+0x186>
 8001a14:	f7ff fa22 	bl	8000e5c <vPortEnterCritical>
 8001a18:	6b7b      	ldr	r3, [r7, #52]	; 0x34
 8001a1a:	681b      	ldr	r3, [r3, #0]
 8001a1c:	63fb      	str	r3, [r7, #60]	; 0x3c
 8001a1e:	683a      	ldr	r2, [r7, #0]
 8001a20:	68b9      	ldr	r1, [r7, #8]
 8001a22:	6bf8      	ldr	r0, [r7, #60]	; 0x3c
 8001a24:	f000 f95e 	bl	8001ce4 <prvTestWaitCondition>
 8001a28:	4603      	mov	r3, r0
 8001a2a:	2b00      	cmp	r3, #0
 8001a2c:	d009      	beq.n	8001a42 <xEventGroupWaitBits+0x17e>
 8001a2e:	687b      	ldr	r3, [r7, #4]
 8001a30:	2b00      	cmp	r3, #0
 8001a32:	d006      	beq.n	8001a42 <xEventGroupWaitBits+0x17e>
 8001a34:	6b7b      	ldr	r3, [r7, #52]	; 0x34
 8001a36:	681a      	ldr	r2, [r3, #0]
 8001a38:	68bb      	ldr	r3, [r7, #8]
 8001a3a:	43db      	mvns	r3, r3
 8001a3c:	401a      	ands	r2, r3
 8001a3e:	6b7b      	ldr	r3, [r7, #52]	; 0x34
 8001a40:	601a      	str	r2, [r3, #0]
 8001a42:	2301      	movs	r3, #1
 8001a44:	633b      	str	r3, [r7, #48]	; 0x30
 8001a46:	f7ff fa39 	bl	8000ebc <vPortExitCritical>
 8001a4a:	6bfb      	ldr	r3, [r7, #60]	; 0x3c
 8001a4c:	f023 437f 	bic.w	r3, r3, #4278190080	; 0xff000000
 8001a50:	63fb      	str	r3, [r7, #60]	; 0x3c
 8001a52:	6bfb      	ldr	r3, [r7, #60]	; 0x3c
 8001a54:	4618      	mov	r0, r3
 8001a56:	3740      	adds	r7, #64	; 0x40
 8001a58:	46bd      	mov	sp, r7
 8001a5a:	bd80      	pop	{r7, pc}
 8001a5c:	e000ed04 	and	lr, r0, r4, lsl #26

08001a60 <xEventGroupClearBits>:
 8001a60:	b580      	push	{r7, lr}
 8001a62:	b086      	sub	sp, #24
 8001a64:	af00      	add	r7, sp, #0
 8001a66:	6078      	str	r0, [r7, #4]
 8001a68:	6039      	str	r1, [r7, #0]
 8001a6a:	687b      	ldr	r3, [r7, #4]
 8001a6c:	617b      	str	r3, [r7, #20]
 8001a6e:	687b      	ldr	r3, [r7, #4]
 8001a70:	2b00      	cmp	r3, #0
 8001a72:	d10a      	bne.n	8001a8a <xEventGroupClearBits+0x2a>
 8001a74:	f04f 0350 	mov.w	r3, #80	; 0x50
 8001a78:	f383 8811 	msr	BASEPRI, r3
 8001a7c:	f3bf 8f6f 	isb	sy
 8001a80:	f3bf 8f4f 	dsb	sy
 8001a84:	60fb      	str	r3, [r7, #12]
 8001a86:	bf00      	nop
 8001a88:	e7fe      	b.n	8001a88 <xEventGroupClearBits+0x28>
 8001a8a:	683b      	ldr	r3, [r7, #0]
 8001a8c:	f003 437f 	and.w	r3, r3, #4278190080	; 0xff000000
 8001a90:	2b00      	cmp	r3, #0
 8001a92:	d00a      	beq.n	8001aaa <xEventGroupClearBits+0x4a>
 8001a94:	f04f 0350 	mov.w	r3, #80	; 0x50
 8001a98:	f383 8811 	msr	BASEPRI, r3
 8001a9c:	f3bf 8f6f 	isb	sy
 8001aa0:	f3bf 8f4f 	dsb	sy
 8001aa4:	60bb      	str	r3, [r7, #8]
 8001aa6:	bf00      	nop
 8001aa8:	e7fe      	b.n	8001aa8 <xEventGroupClearBits+0x48>
 8001aaa:	f7ff f9d7 	bl	8000e5c <vPortEnterCritical>
 8001aae:	697b      	ldr	r3, [r7, #20]
 8001ab0:	681b      	ldr	r3, [r3, #0]
 8001ab2:	613b      	str	r3, [r7, #16]
 8001ab4:	697b      	ldr	r3, [r7, #20]
 8001ab6:	681a      	ldr	r2, [r3, #0]
 8001ab8:	683b      	ldr	r3, [r7, #0]
 8001aba:	43db      	mvns	r3, r3
 8001abc:	401a      	ands	r2, r3
 8001abe:	697b      	ldr	r3, [r7, #20]
 8001ac0:	601a      	str	r2, [r3, #0]
 8001ac2:	f7ff f9fb 	bl	8000ebc <vPortExitCritical>
 8001ac6:	693b      	ldr	r3, [r7, #16]
 8001ac8:	4618      	mov	r0, r3
 8001aca:	3718      	adds	r7, #24
 8001acc:	46bd      	mov	sp, r7
 8001ace:	bd80      	pop	{r7, pc}

08001ad0 <xEventGroupGetBitsFromISR>:
 8001ad0:	b480      	push	{r7}
 8001ad2:	b089      	sub	sp, #36	; 0x24
 8001ad4:	af00      	add	r7, sp, #0
 8001ad6:	6078      	str	r0, [r7, #4]
 8001ad8:	687b      	ldr	r3, [r7, #4]
 8001ada:	61fb      	str	r3, [r7, #28]
 8001adc:	f3ef 8211 	mrs	r2, BASEPRI
 8001ae0:	f04f 0350 	mov.w	r3, #80	; 0x50
 8001ae4:	f383 8811 	msr	BASEPRI, r3
 8001ae8:	f3bf 8f6f 	isb	sy
 8001aec:	f3bf 8f4f 	dsb	sy
 8001af0:	60fa      	str	r2, [r7, #12]
 8001af2:	60bb      	str	r3, [r7, #8]
 8001af4:	68fb      	ldr	r3, [r7, #12]
 8001af6:	61bb      	str	r3, [r7, #24]
 8001af8:	69fb      	ldr	r3, [r7, #28]
 8001afa:	681b      	ldr	r3, [r3, #0]
 8001afc:	617b      	str	r3, [r7, #20]
 8001afe:	69bb      	ldr	r3, [r7, #24]
 8001b00:	613b      	str	r3, [r7, #16]
 8001b02:	693b      	ldr	r3, [r7, #16]
 8001b04:	f383 8811 	msr	BASEPRI, r3
 8001b08:	bf00      	nop
 8001b0a:	697b      	ldr	r3, [r7, #20]
 8001b0c:	4618      	mov	r0, r3
 8001b0e:	3724      	adds	r7, #36	; 0x24
 8001b10:	46bd      	mov	sp, r7
 8001b12:	f85d 7b04 	ldr.w	r7, [sp], #4
 8001b16:	4770      	bx	lr

08001b18 <xEventGroupSetBits>:
 8001b18:	b580      	push	{r7, lr}
 8001b1a:	b08e      	sub	sp, #56	; 0x38
 8001b1c:	af00      	add	r7, sp, #0
 8001b1e:	6078      	str	r0, [r7, #4]
 8001b20:	6039      	str	r1, [r7, #0]
 8001b22:	2300      	movs	r3, #0
 8001b24:	633b      	str	r3, [r7, #48]	; 0x30
 8001b26:	687b      	ldr	r3, [r7, #4]
 8001b28:	62bb      	str	r3, [r7, #40]	; 0x28
 8001b2a:	2300      	movs	r3, #0
 8001b2c:	62fb      	str	r3, [r7, #44]	; 0x2c
 8001b2e:	687b      	ldr	r3, [r7, #4]
 8001b30:	2b00      	cmp	r3, #0
 8001b32:	d10a      	bne.n	8001b4a <xEventGroupSetBits+0x32>
 8001b34:	f04f 0350 	mov.w	r3, #80	; 0x50
 8001b38:	f383 8811 	msr	BASEPRI, r3
 8001b3c:	f3bf 8f6f 	isb	sy
 8001b40:	f3bf 8f4f 	dsb	sy
 8001b44:	60fb      	str	r3, [r7, #12]
 8001b46:	bf00      	nop
 8001b48:	e7fe      	b.n	8001b48 <xEventGroupSetBits+0x30>
 8001b4a:	683b      	ldr	r3, [r7, #0]
 8001b4c:	f003 437f 	and.w	r3, r3, #4278190080	; 0xff000000
 8001b50:	2b00      	cmp	r3, #0
 8001b52:	d00a      	beq.n	8001b6a <xEventGroupSetBits+0x52>
 8001b54:	f04f 0350 	mov.w	r3, #80	; 0x50
 8001b58:	f383 8811 	msr	BASEPRI, r3
 8001b5c:	f3bf 8f6f 	isb	sy
 8001b60:	f3bf 8f4f 	dsb	sy
 8001b64:	60bb      	str	r3, [r7, #8]
 8001b66:	bf00      	nop
 8001b68:	e7fe      	b.n	8001b68 <xEventGroupSetBits+0x50>
 8001b6a:	6abb      	ldr	r3, [r7, #40]	; 0x28
 8001b6c:	3304      	adds	r3, #4
 8001b6e:	627b      	str	r3, [r7, #36]	; 0x24
 8001b70:	6a7b      	ldr	r3, [r7, #36]	; 0x24
 8001b72:	3308      	adds	r3, #8
 8001b74:	623b      	str	r3, [r7, #32]
 8001b76:	f003 fc27 	bl	80053c8 <vTaskSuspendAll>
 8001b7a:	6a7b      	ldr	r3, [r7, #36]	; 0x24
 8001b7c:	68db      	ldr	r3, [r3, #12]
 8001b7e:	637b      	str	r3, [r7, #52]	; 0x34
 8001b80:	6abb      	ldr	r3, [r7, #40]	; 0x28
 8001b82:	681a      	ldr	r2, [r3, #0]
 8001b84:	683b      	ldr	r3, [r7, #0]
 8001b86:	431a      	orrs	r2, r3
 8001b88:	6abb      	ldr	r3, [r7, #40]	; 0x28
 8001b8a:	601a      	str	r2, [r3, #0]
 8001b8c:	e03c      	b.n	8001c08 <xEventGroupSetBits+0xf0>
 8001b8e:	6b7b      	ldr	r3, [r7, #52]	; 0x34
 8001b90:	685b      	ldr	r3, [r3, #4]
 8001b92:	61bb      	str	r3, [r7, #24]
 8001b94:	6b7b      	ldr	r3, [r7, #52]	; 0x34
 8001b96:	681b      	ldr	r3, [r3, #0]
 8001b98:	617b      	str	r3, [r7, #20]
 8001b9a:	2300      	movs	r3, #0
 8001b9c:	62fb      	str	r3, [r7, #44]	; 0x2c
 8001b9e:	697b      	ldr	r3, [r7, #20]
 8001ba0:	f003 437f 	and.w	r3, r3, #4278190080	; 0xff000000
 8001ba4:	613b      	str	r3, [r7, #16]
 8001ba6:	697b      	ldr	r3, [r7, #20]
 8001ba8:	f023 437f 	bic.w	r3, r3, #4278190080	; 0xff000000
 8001bac:	617b      	str	r3, [r7, #20]
 8001bae:	693b      	ldr	r3, [r7, #16]
 8001bb0:	f003 6380 	and.w	r3, r3, #67108864	; 0x4000000
 8001bb4:	2b00      	cmp	r3, #0
 8001bb6:	d108      	bne.n	8001bca <xEventGroupSetBits+0xb2>
 8001bb8:	6abb      	ldr	r3, [r7, #40]	; 0x28
 8001bba:	681a      	ldr	r2, [r3, #0]
 8001bbc:	697b      	ldr	r3, [r7, #20]
 8001bbe:	4013      	ands	r3, r2
 8001bc0:	2b00      	cmp	r3, #0
 8001bc2:	d00b      	beq.n	8001bdc <xEventGroupSetBits+0xc4>
 8001bc4:	2301      	movs	r3, #1
 8001bc6:	62fb      	str	r3, [r7, #44]	; 0x2c
 8001bc8:	e008      	b.n	8001bdc <xEventGroupSetBits+0xc4>
 8001bca:	6abb      	ldr	r3, [r7, #40]	; 0x28
 8001bcc:	681a      	ldr	r2, [r3, #0]
 8001bce:	697b      	ldr	r3, [r7, #20]
 8001bd0:	4013      	ands	r3, r2
 8001bd2:	697a      	ldr	r2, [r7, #20]
 8001bd4:	429a      	cmp	r2, r3
 8001bd6:	d101      	bne.n	8001bdc <xEventGroupSetBits+0xc4>
 8001bd8:	2301      	movs	r3, #1
 8001bda:	62fb      	str	r3, [r7, #44]	; 0x2c
 8001bdc:	6afb      	ldr	r3, [r7, #44]	; 0x2c
 8001bde:	2b00      	cmp	r3, #0
 8001be0:	d010      	beq.n	8001c04 <xEventGroupSetBits+0xec>
 8001be2:	693b      	ldr	r3, [r7, #16]
 8001be4:	f003 7380 	and.w	r3, r3, #16777216	; 0x1000000
 8001be8:	2b00      	cmp	r3, #0
 8001bea:	d003      	beq.n	8001bf4 <xEventGroupSetBits+0xdc>
 8001bec:	6b3a      	ldr	r2, [r7, #48]	; 0x30
 8001bee:	697b      	ldr	r3, [r7, #20]
 8001bf0:	4313      	orrs	r3, r2
 8001bf2:	633b      	str	r3, [r7, #48]	; 0x30
 8001bf4:	6abb      	ldr	r3, [r7, #40]	; 0x28
 8001bf6:	681b      	ldr	r3, [r3, #0]
 8001bf8:	f043 7300 	orr.w	r3, r3, #33554432	; 0x2000000
 8001bfc:	4619      	mov	r1, r3
 8001bfe:	6b78      	ldr	r0, [r7, #52]	; 0x34
 8001c00:	f004 f910 	bl	8005e24 <vTaskRemoveFromUnorderedEventList>
 8001c04:	69bb      	ldr	r3, [r7, #24]
 8001c06:	637b      	str	r3, [r7, #52]	; 0x34
 8001c08:	6b7a      	ldr	r2, [r7, #52]	; 0x34
 8001c0a:	6a3b      	ldr	r3, [r7, #32]
 8001c0c:	429a      	cmp	r2, r3
 8001c0e:	d1be      	bne.n	8001b8e <xEventGroupSetBits+0x76>
 8001c10:	6abb      	ldr	r3, [r7, #40]	; 0x28
 8001c12:	681a      	ldr	r2, [r3, #0]
 8001c14:	6b3b      	ldr	r3, [r7, #48]	; 0x30
 8001c16:	43db      	mvns	r3, r3
 8001c18:	401a      	ands	r2, r3
 8001c1a:	6abb      	ldr	r3, [r7, #40]	; 0x28
 8001c1c:	601a      	str	r2, [r3, #0]
 8001c1e:	6abb      	ldr	r3, [r7, #40]	; 0x28
 8001c20:	681b      	ldr	r3, [r3, #0]
 8001c22:	61fb      	str	r3, [r7, #28]
 8001c24:	f003 fbde 	bl	80053e4 <xTaskResumeAll>
 8001c28:	69fb      	ldr	r3, [r7, #28]
 8001c2a:	4618      	mov	r0, r3
 8001c2c:	3738      	adds	r7, #56	; 0x38
 8001c2e:	46bd      	mov	sp, r7
 8001c30:	bd80      	pop	{r7, pc}

08001c32 <vEventGroupDelete>:
 8001c32:	b580      	push	{r7, lr}
 8001c34:	b086      	sub	sp, #24
 8001c36:	af00      	add	r7, sp, #0
 8001c38:	6078      	str	r0, [r7, #4]
 8001c3a:	687b      	ldr	r3, [r7, #4]
 8001c3c:	617b      	str	r3, [r7, #20]
 8001c3e:	697b      	ldr	r3, [r7, #20]
 8001c40:	2b00      	cmp	r3, #0
 8001c42:	d10a      	bne.n	8001c5a <vEventGroupDelete+0x28>
 8001c44:	f04f 0350 	mov.w	r3, #80	; 0x50
 8001c48:	f383 8811 	msr	BASEPRI, r3
 8001c4c:	f3bf 8f6f 	isb	sy
 8001c50:	f3bf 8f4f 	dsb	sy
 8001c54:	60fb      	str	r3, [r7, #12]
 8001c56:	bf00      	nop
 8001c58:	e7fe      	b.n	8001c58 <vEventGroupDelete+0x26>
 8001c5a:	697b      	ldr	r3, [r7, #20]
 8001c5c:	3304      	adds	r3, #4
 8001c5e:	613b      	str	r3, [r7, #16]
 8001c60:	f003 fbb2 	bl	80053c8 <vTaskSuspendAll>
 8001c64:	e017      	b.n	8001c96 <vEventGroupDelete+0x64>
 8001c66:	693b      	ldr	r3, [r7, #16]
 8001c68:	68da      	ldr	r2, [r3, #12]
 8001c6a:	693b      	ldr	r3, [r7, #16]
 8001c6c:	3308      	adds	r3, #8
 8001c6e:	429a      	cmp	r2, r3
 8001c70:	d10a      	bne.n	8001c88 <vEventGroupDelete+0x56>
 8001c72:	f04f 0350 	mov.w	r3, #80	; 0x50
 8001c76:	f383 8811 	msr	BASEPRI, r3
 8001c7a:	f3bf 8f6f 	isb	sy
 8001c7e:	f3bf 8f4f 	dsb	sy
 8001c82:	60bb      	str	r3, [r7, #8]
 8001c84:	bf00      	nop
 8001c86:	e7fe      	b.n	8001c86 <vEventGroupDelete+0x54>
 8001c88:	693b      	ldr	r3, [r7, #16]
 8001c8a:	68db      	ldr	r3, [r3, #12]
 8001c8c:	f04f 7100 	mov.w	r1, #33554432	; 0x2000000
 8001c90:	4618      	mov	r0, r3
 8001c92:	f004 f8c7 	bl	8005e24 <vTaskRemoveFromUnorderedEventList>
 8001c96:	693b      	ldr	r3, [r7, #16]
 8001c98:	681b      	ldr	r3, [r3, #0]
 8001c9a:	2b00      	cmp	r3, #0
 8001c9c:	d1e3      	bne.n	8001c66 <vEventGroupDelete+0x34>
 8001c9e:	f003 fba1 	bl	80053e4 <xTaskResumeAll>
 8001ca2:	6978      	ldr	r0, [r7, #20]
 8001ca4:	f7ff fb1e 	bl	80012e4 <vPortFree>
 8001ca8:	bf00      	nop
 8001caa:	3718      	adds	r7, #24
 8001cac:	46bd      	mov	sp, r7
 8001cae:	bd80      	pop	{r7, pc}

08001cb0 <vEventGroupSetBitsCallback>:
 8001cb0:	b580      	push	{r7, lr}
 8001cb2:	b082      	sub	sp, #8
 8001cb4:	af00      	add	r7, sp, #0
 8001cb6:	6078      	str	r0, [r7, #4]
 8001cb8:	6039      	str	r1, [r7, #0]
 8001cba:	6839      	ldr	r1, [r7, #0]
 8001cbc:	6878      	ldr	r0, [r7, #4]
 8001cbe:	f7ff ff2b 	bl	8001b18 <xEventGroupSetBits>
 8001cc2:	bf00      	nop
 8001cc4:	3708      	adds	r7, #8
 8001cc6:	46bd      	mov	sp, r7
 8001cc8:	bd80      	pop	{r7, pc}

08001cca <vEventGroupClearBitsCallback>:
 8001cca:	b580      	push	{r7, lr}
 8001ccc:	b082      	sub	sp, #8
 8001cce:	af00      	add	r7, sp, #0
 8001cd0:	6078      	str	r0, [r7, #4]
 8001cd2:	6039      	str	r1, [r7, #0]
 8001cd4:	6839      	ldr	r1, [r7, #0]
 8001cd6:	6878      	ldr	r0, [r7, #4]
 8001cd8:	f7ff fec2 	bl	8001a60 <xEventGroupClearBits>
 8001cdc:	bf00      	nop
 8001cde:	3708      	adds	r7, #8
 8001ce0:	46bd      	mov	sp, r7
 8001ce2:	bd80      	pop	{r7, pc}

08001ce4 <prvTestWaitCondition>:
 8001ce4:	b480      	push	{r7}
 8001ce6:	b087      	sub	sp, #28
 8001ce8:	af00      	add	r7, sp, #0
 8001cea:	60f8      	str	r0, [r7, #12]
 8001cec:	60b9      	str	r1, [r7, #8]
 8001cee:	607a      	str	r2, [r7, #4]
 8001cf0:	2300      	movs	r3, #0
 8001cf2:	617b      	str	r3, [r7, #20]
 8001cf4:	687b      	ldr	r3, [r7, #4]
 8001cf6:	2b00      	cmp	r3, #0
 8001cf8:	d107      	bne.n	8001d0a <prvTestWaitCondition+0x26>
 8001cfa:	68fa      	ldr	r2, [r7, #12]
 8001cfc:	68bb      	ldr	r3, [r7, #8]
 8001cfe:	4013      	ands	r3, r2
 8001d00:	2b00      	cmp	r3, #0
 8001d02:	d00a      	beq.n	8001d1a <prvTestWaitCondition+0x36>
 8001d04:	2301      	movs	r3, #1
 8001d06:	617b      	str	r3, [r7, #20]
 8001d08:	e007      	b.n	8001d1a <prvTestWaitCondition+0x36>
 8001d0a:	68fa      	ldr	r2, [r7, #12]
 8001d0c:	68bb      	ldr	r3, [r7, #8]
 8001d0e:	4013      	ands	r3, r2
 8001d10:	68ba      	ldr	r2, [r7, #8]
 8001d12:	429a      	cmp	r2, r3
 8001d14:	d101      	bne.n	8001d1a <prvTestWaitCondition+0x36>
 8001d16:	2301      	movs	r3, #1
 8001d18:	617b      	str	r3, [r7, #20]
 8001d1a:	697b      	ldr	r3, [r7, #20]
 8001d1c:	4618      	mov	r0, r3
 8001d1e:	371c      	adds	r7, #28
 8001d20:	46bd      	mov	sp, r7
 8001d22:	f85d 7b04 	ldr.w	r7, [sp], #4
 8001d26:	4770      	bx	lr

08001d28 <uxEventGroupGetNumber>:
 8001d28:	b480      	push	{r7}
 8001d2a:	b085      	sub	sp, #20
 8001d2c:	af00      	add	r7, sp, #0
 8001d2e:	6078      	str	r0, [r7, #4]
 8001d30:	687b      	ldr	r3, [r7, #4]
 8001d32:	60bb      	str	r3, [r7, #8]
 8001d34:	687b      	ldr	r3, [r7, #4]
 8001d36:	2b00      	cmp	r3, #0
 8001d38:	d102      	bne.n	8001d40 <uxEventGroupGetNumber+0x18>
 8001d3a:	2300      	movs	r3, #0
 8001d3c:	60fb      	str	r3, [r7, #12]
 8001d3e:	e002      	b.n	8001d46 <uxEventGroupGetNumber+0x1e>
 8001d40:	68bb      	ldr	r3, [r7, #8]
 8001d42:	699b      	ldr	r3, [r3, #24]
 8001d44:	60fb      	str	r3, [r7, #12]
 8001d46:	68fb      	ldr	r3, [r7, #12]
 8001d48:	4618      	mov	r0, r3
 8001d4a:	3714      	adds	r7, #20
 8001d4c:	46bd      	mov	sp, r7
 8001d4e:	f85d 7b04 	ldr.w	r7, [sp], #4
 8001d52:	4770      	bx	lr

08001d54 <vEventGroupSetNumber>:
 8001d54:	b480      	push	{r7}
 8001d56:	b083      	sub	sp, #12
 8001d58:	af00      	add	r7, sp, #0
 8001d5a:	6078      	str	r0, [r7, #4]
 8001d5c:	6039      	str	r1, [r7, #0]
 8001d5e:	687b      	ldr	r3, [r7, #4]
 8001d60:	683a      	ldr	r2, [r7, #0]
 8001d62:	619a      	str	r2, [r3, #24]
 8001d64:	bf00      	nop
 8001d66:	370c      	adds	r7, #12
 8001d68:	46bd      	mov	sp, r7
 8001d6a:	f85d 7b04 	ldr.w	r7, [sp], #4
 8001d6e:	4770      	bx	lr

08001d70 <vListInitialise>:
 8001d70:	b480      	push	{r7}
 8001d72:	b083      	sub	sp, #12
 8001d74:	af00      	add	r7, sp, #0
 8001d76:	6078      	str	r0, [r7, #4]
 8001d78:	687b      	ldr	r3, [r7, #4]
 8001d7a:	f103 0208 	add.w	r2, r3, #8
 8001d7e:	687b      	ldr	r3, [r7, #4]
 8001d80:	605a      	str	r2, [r3, #4]
 8001d82:	687b      	ldr	r3, [r7, #4]
 8001d84:	f04f 32ff 	mov.w	r2, #4294967295	; 0xffffffff
 8001d88:	609a      	str	r2, [r3, #8]
 8001d8a:	687b      	ldr	r3, [r7, #4]
 8001d8c:	f103 0208 	add.w	r2, r3, #8
 8001d90:	687b      	ldr	r3, [r7, #4]
 8001d92:	60da      	str	r2, [r3, #12]
 8001d94:	687b      	ldr	r3, [r7, #4]
 8001d96:	f103 0208 	add.w	r2, r3, #8
 8001d9a:	687b      	ldr	r3, [r7, #4]
 8001d9c:	611a      	str	r2, [r3, #16]
 8001d9e:	687b      	ldr	r3, [r7, #4]
 8001da0:	2200      	movs	r2, #0
 8001da2:	601a      	str	r2, [r3, #0]
 8001da4:	bf00      	nop
 8001da6:	370c      	adds	r7, #12
 8001da8:	46bd      	mov	sp, r7
 8001daa:	f85d 7b04 	ldr.w	r7, [sp], #4
 8001dae:	4770      	bx	lr

08001db0 <vListInitialiseItem>:
 8001db0:	b480      	push	{r7}
 8001db2:	b083      	sub	sp, #12
 8001db4:	af00      	add	r7, sp, #0
 8001db6:	6078      	str	r0, [r7, #4]
 8001db8:	687b      	ldr	r3, [r7, #4]
 8001dba:	2200      	movs	r2, #0
 8001dbc:	611a      	str	r2, [r3, #16]
 8001dbe:	bf00      	nop
 8001dc0:	370c      	adds	r7, #12
 8001dc2:	46bd      	mov	sp, r7
 8001dc4:	f85d 7b04 	ldr.w	r7, [sp], #4
 8001dc8:	4770      	bx	lr

08001dca <vListInsertEnd>:
 8001dca:	b480      	push	{r7}
 8001dcc:	b085      	sub	sp, #20
 8001dce:	af00      	add	r7, sp, #0
 8001dd0:	6078      	str	r0, [r7, #4]
 8001dd2:	6039      	str	r1, [r7, #0]
 8001dd4:	687b      	ldr	r3, [r7, #4]
 8001dd6:	685b      	ldr	r3, [r3, #4]
 8001dd8:	60fb      	str	r3, [r7, #12]
 8001dda:	683b      	ldr	r3, [r7, #0]
 8001ddc:	68fa      	ldr	r2, [r7, #12]
 8001dde:	605a      	str	r2, [r3, #4]
 8001de0:	68fb      	ldr	r3, [r7, #12]
 8001de2:	689a      	ldr	r2, [r3, #8]
 8001de4:	683b      	ldr	r3, [r7, #0]
 8001de6:	609a      	str	r2, [r3, #8]
 8001de8:	68fb      	ldr	r3, [r7, #12]
 8001dea:	689b      	ldr	r3, [r3, #8]
 8001dec:	683a      	ldr	r2, [r7, #0]
 8001dee:	605a      	str	r2, [r3, #4]
 8001df0:	68fb      	ldr	r3, [r7, #12]
 8001df2:	683a      	ldr	r2, [r7, #0]
 8001df4:	609a      	str	r2, [r3, #8]
 8001df6:	683b      	ldr	r3, [r7, #0]
 8001df8:	687a      	ldr	r2, [r7, #4]
 8001dfa:	611a      	str	r2, [r3, #16]
 8001dfc:	687b      	ldr	r3, [r7, #4]
 8001dfe:	681b      	ldr	r3, [r3, #0]
 8001e00:	1c5a      	adds	r2, r3, #1
 8001e02:	687b      	ldr	r3, [r7, #4]
 8001e04:	601a      	str	r2, [r3, #0]
 8001e06:	bf00      	nop
 8001e08:	3714      	adds	r7, #20
 8001e0a:	46bd      	mov	sp, r7
 8001e0c:	f85d 7b04 	ldr.w	r7, [sp], #4
 8001e10:	4770      	bx	lr

08001e12 <vListInsert>:
 8001e12:	b480      	push	{r7}
 8001e14:	b085      	sub	sp, #20
 8001e16:	af00      	add	r7, sp, #0
 8001e18:	6078      	str	r0, [r7, #4]
 8001e1a:	6039      	str	r1, [r7, #0]
 8001e1c:	683b      	ldr	r3, [r7, #0]
 8001e1e:	681b      	ldr	r3, [r3, #0]
 8001e20:	60bb      	str	r3, [r7, #8]
 8001e22:	68bb      	ldr	r3, [r7, #8]
 8001e24:	f1b3 3fff 	cmp.w	r3, #4294967295	; 0xffffffff
 8001e28:	d103      	bne.n	8001e32 <vListInsert+0x20>
 8001e2a:	687b      	ldr	r3, [r7, #4]
 8001e2c:	691b      	ldr	r3, [r3, #16]
 8001e2e:	60fb      	str	r3, [r7, #12]
 8001e30:	e00c      	b.n	8001e4c <vListInsert+0x3a>
 8001e32:	687b      	ldr	r3, [r7, #4]
 8001e34:	3308      	adds	r3, #8
 8001e36:	60fb      	str	r3, [r7, #12]
 8001e38:	e002      	b.n	8001e40 <vListInsert+0x2e>
 8001e3a:	68fb      	ldr	r3, [r7, #12]
 8001e3c:	685b      	ldr	r3, [r3, #4]
 8001e3e:	60fb      	str	r3, [r7, #12]
 8001e40:	68fb      	ldr	r3, [r7, #12]
 8001e42:	685b      	ldr	r3, [r3, #4]
 8001e44:	681b      	ldr	r3, [r3, #0]
 8001e46:	68ba      	ldr	r2, [r7, #8]
 8001e48:	429a      	cmp	r2, r3
 8001e4a:	d2f6      	bcs.n	8001e3a <vListInsert+0x28>
 8001e4c:	68fb      	ldr	r3, [r7, #12]
 8001e4e:	685a      	ldr	r2, [r3, #4]
 8001e50:	683b      	ldr	r3, [r7, #0]
 8001e52:	605a      	str	r2, [r3, #4]
 8001e54:	683b      	ldr	r3, [r7, #0]
 8001e56:	685b      	ldr	r3, [r3, #4]
 8001e58:	683a      	ldr	r2, [r7, #0]
 8001e5a:	609a      	str	r2, [r3, #8]
 8001e5c:	683b      	ldr	r3, [r7, #0]
 8001e5e:	68fa      	ldr	r2, [r7, #12]
 8001e60:	609a      	str	r2, [r3, #8]
 8001e62:	68fb      	ldr	r3, [r7, #12]
 8001e64:	683a      	ldr	r2, [r7, #0]
 8001e66:	605a      	str	r2, [r3, #4]
 8001e68:	683b      	ldr	r3, [r7, #0]
 8001e6a:	687a      	ldr	r2, [r7, #4]
 8001e6c:	611a      	str	r2, [r3, #16]
 8001e6e:	687b      	ldr	r3, [r7, #4]
 8001e70:	681b      	ldr	r3, [r3, #0]
 8001e72:	1c5a      	adds	r2, r3, #1
 8001e74:	687b      	ldr	r3, [r7, #4]
 8001e76:	601a      	str	r2, [r3, #0]
 8001e78:	bf00      	nop
 8001e7a:	3714      	adds	r7, #20
 8001e7c:	46bd      	mov	sp, r7
 8001e7e:	f85d 7b04 	ldr.w	r7, [sp], #4
 8001e82:	4770      	bx	lr

08001e84 <uxListRemove>:
 8001e84:	b480      	push	{r7}
 8001e86:	b085      	sub	sp, #20
 8001e88:	af00      	add	r7, sp, #0
 8001e8a:	6078      	str	r0, [r7, #4]
 8001e8c:	687b      	ldr	r3, [r7, #4]
 8001e8e:	691b      	ldr	r3, [r3, #16]
 8001e90:	60fb      	str	r3, [r7, #12]
 8001e92:	687b      	ldr	r3, [r7, #4]
 8001e94:	685b      	ldr	r3, [r3, #4]
 8001e96:	687a      	ldr	r2, [r7, #4]
 8001e98:	6892      	ldr	r2, [r2, #8]
 8001e9a:	609a      	str	r2, [r3, #8]
 8001e9c:	687b      	ldr	r3, [r7, #4]
 8001e9e:	689b      	ldr	r3, [r3, #8]
 8001ea0:	687a      	ldr	r2, [r7, #4]
 8001ea2:	6852      	ldr	r2, [r2, #4]
 8001ea4:	605a      	str	r2, [r3, #4]
 8001ea6:	68fb      	ldr	r3, [r7, #12]
 8001ea8:	685b      	ldr	r3, [r3, #4]
 8001eaa:	687a      	ldr	r2, [r7, #4]
 8001eac:	429a      	cmp	r2, r3
 8001eae:	d103      	bne.n	8001eb8 <uxListRemove+0x34>
 8001eb0:	687b      	ldr	r3, [r7, #4]
 8001eb2:	689a      	ldr	r2, [r3, #8]
 8001eb4:	68fb      	ldr	r3, [r7, #12]
 8001eb6:	605a      	str	r2, [r3, #4]
 8001eb8:	687b      	ldr	r3, [r7, #4]
 8001eba:	2200      	movs	r2, #0
 8001ebc:	611a      	str	r2, [r3, #16]
 8001ebe:	68fb      	ldr	r3, [r7, #12]
 8001ec0:	681b      	ldr	r3, [r3, #0]
 8001ec2:	1e5a      	subs	r2, r3, #1
 8001ec4:	68fb      	ldr	r3, [r7, #12]
 8001ec6:	601a      	str	r2, [r3, #0]
 8001ec8:	68fb      	ldr	r3, [r7, #12]
 8001eca:	681b      	ldr	r3, [r3, #0]
 8001ecc:	4618      	mov	r0, r3
 8001ece:	3714      	adds	r7, #20
 8001ed0:	46bd      	mov	sp, r7
 8001ed2:	f85d 7b04 	ldr.w	r7, [sp], #4
 8001ed6:	4770      	bx	lr

08001ed8 <xQueueGenericReset>:
 8001ed8:	b580      	push	{r7, lr}
 8001eda:	b086      	sub	sp, #24
 8001edc:	af00      	add	r7, sp, #0
 8001ede:	6078      	str	r0, [r7, #4]
 8001ee0:	6039      	str	r1, [r7, #0]
 8001ee2:	2301      	movs	r3, #1
 8001ee4:	617b      	str	r3, [r7, #20]
 8001ee6:	687b      	ldr	r3, [r7, #4]
 8001ee8:	613b      	str	r3, [r7, #16]
 8001eea:	693b      	ldr	r3, [r7, #16]
 8001eec:	2b00      	cmp	r3, #0
 8001eee:	d10a      	bne.n	8001f06 <xQueueGenericReset+0x2e>
 8001ef0:	f04f 0350 	mov.w	r3, #80	; 0x50
 8001ef4:	f383 8811 	msr	BASEPRI, r3
 8001ef8:	f3bf 8f6f 	isb	sy
 8001efc:	f3bf 8f4f 	dsb	sy
 8001f00:	60fb      	str	r3, [r7, #12]
 8001f02:	bf00      	nop
 8001f04:	e7fe      	b.n	8001f04 <xQueueGenericReset+0x2c>
 8001f06:	693b      	ldr	r3, [r7, #16]
 8001f08:	2b00      	cmp	r3, #0
 8001f0a:	d05d      	beq.n	8001fc8 <xQueueGenericReset+0xf0>
 8001f0c:	693b      	ldr	r3, [r7, #16]
 8001f0e:	6bdb      	ldr	r3, [r3, #60]	; 0x3c
 8001f10:	2b00      	cmp	r3, #0
 8001f12:	d059      	beq.n	8001fc8 <xQueueGenericReset+0xf0>
 8001f14:	693b      	ldr	r3, [r7, #16]
 8001f16:	6c1a      	ldr	r2, [r3, #64]	; 0x40
 8001f18:	693b      	ldr	r3, [r7, #16]
 8001f1a:	6bdb      	ldr	r3, [r3, #60]	; 0x3c
 8001f1c:	2100      	movs	r1, #0
 8001f1e:	fba3 2302 	umull	r2, r3, r3, r2
 8001f22:	2b00      	cmp	r3, #0
 8001f24:	d000      	beq.n	8001f28 <xQueueGenericReset+0x50>
 8001f26:	2101      	movs	r1, #1
 8001f28:	460b      	mov	r3, r1
 8001f2a:	2b00      	cmp	r3, #0
 8001f2c:	d14c      	bne.n	8001fc8 <xQueueGenericReset+0xf0>
 8001f2e:	f7fe ff95 	bl	8000e5c <vPortEnterCritical>
 8001f32:	693b      	ldr	r3, [r7, #16]
 8001f34:	681a      	ldr	r2, [r3, #0]
 8001f36:	693b      	ldr	r3, [r7, #16]
 8001f38:	6bdb      	ldr	r3, [r3, #60]	; 0x3c
 8001f3a:	6939      	ldr	r1, [r7, #16]
 8001f3c:	6c09      	ldr	r1, [r1, #64]	; 0x40
 8001f3e:	fb01 f303 	mul.w	r3, r1, r3
 8001f42:	441a      	add	r2, r3
 8001f44:	693b      	ldr	r3, [r7, #16]
 8001f46:	609a      	str	r2, [r3, #8]
 8001f48:	693b      	ldr	r3, [r7, #16]
 8001f4a:	2200      	movs	r2, #0
 8001f4c:	639a      	str	r2, [r3, #56]	; 0x38
 8001f4e:	693b      	ldr	r3, [r7, #16]
 8001f50:	681a      	ldr	r2, [r3, #0]
 8001f52:	693b      	ldr	r3, [r7, #16]
 8001f54:	605a      	str	r2, [r3, #4]
 8001f56:	693b      	ldr	r3, [r7, #16]
 8001f58:	681a      	ldr	r2, [r3, #0]
 8001f5a:	693b      	ldr	r3, [r7, #16]
 8001f5c:	6bdb      	ldr	r3, [r3, #60]	; 0x3c
 8001f5e:	3b01      	subs	r3, #1
 8001f60:	6939      	ldr	r1, [r7, #16]
 8001f62:	6c09      	ldr	r1, [r1, #64]	; 0x40
 8001f64:	fb01 f303 	mul.w	r3, r1, r3
 8001f68:	441a      	add	r2, r3
 8001f6a:	693b      	ldr	r3, [r7, #16]
 8001f6c:	60da      	str	r2, [r3, #12]
 8001f6e:	693b      	ldr	r3, [r7, #16]
 8001f70:	22ff      	movs	r2, #255	; 0xff
 8001f72:	f883 2044 	strb.w	r2, [r3, #68]	; 0x44
 8001f76:	693b      	ldr	r3, [r7, #16]
 8001f78:	22ff      	movs	r2, #255	; 0xff
 8001f7a:	f883 2045 	strb.w	r2, [r3, #69]	; 0x45
 8001f7e:	683b      	ldr	r3, [r7, #0]
 8001f80:	2b00      	cmp	r3, #0
 8001f82:	d114      	bne.n	8001fae <xQueueGenericReset+0xd6>
 8001f84:	693b      	ldr	r3, [r7, #16]
 8001f86:	691b      	ldr	r3, [r3, #16]
 8001f88:	2b00      	cmp	r3, #0
 8001f8a:	d01a      	beq.n	8001fc2 <xQueueGenericReset+0xea>
 8001f8c:	693b      	ldr	r3, [r7, #16]
 8001f8e:	3310      	adds	r3, #16
 8001f90:	4618      	mov	r0, r3
 8001f92:	f003 fe6f 	bl	8005c74 <xTaskRemoveFromEventList>
 8001f96:	4603      	mov	r3, r0
 8001f98:	2b00      	cmp	r3, #0
 8001f9a:	d012      	beq.n	8001fc2 <xQueueGenericReset+0xea>
 8001f9c:	4b15      	ldr	r3, [pc, #84]	; (8001ff4 <xQueueGenericReset+0x11c>)
 8001f9e:	f04f 5280 	mov.w	r2, #268435456	; 0x10000000
 8001fa2:	601a      	str	r2, [r3, #0]
 8001fa4:	f3bf 8f4f 	dsb	sy
 8001fa8:	f3bf 8f6f 	isb	sy
 8001fac:	e009      	b.n	8001fc2 <xQueueGenericReset+0xea>
 8001fae:	693b      	ldr	r3, [r7, #16]
 8001fb0:	3310      	adds	r3, #16
 8001fb2:	4618      	mov	r0, r3
 8001fb4:	f7ff fedc 	bl	8001d70 <vListInitialise>
 8001fb8:	693b      	ldr	r3, [r7, #16]
 8001fba:	3324      	adds	r3, #36	; 0x24
 8001fbc:	4618      	mov	r0, r3
 8001fbe:	f7ff fed7 	bl	8001d70 <vListInitialise>
 8001fc2:	f7fe ff7b 	bl	8000ebc <vPortExitCritical>
 8001fc6:	e001      	b.n	8001fcc <xQueueGenericReset+0xf4>
 8001fc8:	2300      	movs	r3, #0
 8001fca:	617b      	str	r3, [r7, #20]
 8001fcc:	697b      	ldr	r3, [r7, #20]
 8001fce:	2b00      	cmp	r3, #0
 8001fd0:	d10a      	bne.n	8001fe8 <xQueueGenericReset+0x110>
 8001fd2:	f04f 0350 	mov.w	r3, #80	; 0x50
 8001fd6:	f383 8811 	msr	BASEPRI, r3
 8001fda:	f3bf 8f6f 	isb	sy
 8001fde:	f3bf 8f4f 	dsb	sy
 8001fe2:	60bb      	str	r3, [r7, #8]
 8001fe4:	bf00      	nop
 8001fe6:	e7fe      	b.n	8001fe6 <xQueueGenericReset+0x10e>
 8001fe8:	697b      	ldr	r3, [r7, #20]
 8001fea:	4618      	mov	r0, r3
 8001fec:	3718      	adds	r7, #24
 8001fee:	46bd      	mov	sp, r7
 8001ff0:	bd80      	pop	{r7, pc}
 8001ff2:	bf00      	nop
 8001ff4:	e000ed04 	and	lr, r0, r4, lsl #26

08001ff8 <xQueueGenericCreate>:
 8001ff8:	b580      	push	{r7, lr}
 8001ffa:	b08a      	sub	sp, #40	; 0x28
 8001ffc:	af02      	add	r7, sp, #8
 8001ffe:	60f8      	str	r0, [r7, #12]
 8002000:	60b9      	str	r1, [r7, #8]
 8002002:	4613      	mov	r3, r2
 8002004:	71fb      	strb	r3, [r7, #7]
 8002006:	2300      	movs	r3, #0
 8002008:	61fb      	str	r3, [r7, #28]
 800200a:	68fb      	ldr	r3, [r7, #12]
 800200c:	2b00      	cmp	r3, #0
 800200e:	d02e      	beq.n	800206e <xQueueGenericCreate+0x76>
 8002010:	2100      	movs	r1, #0
 8002012:	68ba      	ldr	r2, [r7, #8]
 8002014:	68fb      	ldr	r3, [r7, #12]
 8002016:	fba3 2302 	umull	r2, r3, r3, r2
 800201a:	2b00      	cmp	r3, #0
 800201c:	d000      	beq.n	8002020 <xQueueGenericCreate+0x28>
 800201e:	2101      	movs	r1, #1
 8002020:	460b      	mov	r3, r1
 8002022:	2b00      	cmp	r3, #0
 8002024:	d123      	bne.n	800206e <xQueueGenericCreate+0x76>
 8002026:	68fb      	ldr	r3, [r7, #12]
 8002028:	68ba      	ldr	r2, [r7, #8]
 800202a:	fb02 f303 	mul.w	r3, r2, r3
 800202e:	f113 0f51 	cmn.w	r3, #81	; 0x51
 8002032:	d81c      	bhi.n	800206e <xQueueGenericCreate+0x76>
 8002034:	68fb      	ldr	r3, [r7, #12]
 8002036:	68ba      	ldr	r2, [r7, #8]
 8002038:	fb02 f303 	mul.w	r3, r2, r3
 800203c:	61bb      	str	r3, [r7, #24]
 800203e:	69bb      	ldr	r3, [r7, #24]
 8002040:	3350      	adds	r3, #80	; 0x50
 8002042:	4618      	mov	r0, r3
 8002044:	f7ff f81e 	bl	8001084 <pvPortMalloc>
 8002048:	61f8      	str	r0, [r7, #28]
 800204a:	69fb      	ldr	r3, [r7, #28]
 800204c:	2b00      	cmp	r3, #0
 800204e:	d01c      	beq.n	800208a <xQueueGenericCreate+0x92>
 8002050:	69fb      	ldr	r3, [r7, #28]
 8002052:	617b      	str	r3, [r7, #20]
 8002054:	697b      	ldr	r3, [r7, #20]
 8002056:	3350      	adds	r3, #80	; 0x50
 8002058:	617b      	str	r3, [r7, #20]
 800205a:	79fa      	ldrb	r2, [r7, #7]
 800205c:	69fb      	ldr	r3, [r7, #28]
 800205e:	9300      	str	r3, [sp, #0]
 8002060:	4613      	mov	r3, r2
 8002062:	697a      	ldr	r2, [r7, #20]
 8002064:	68b9      	ldr	r1, [r7, #8]
 8002066:	68f8      	ldr	r0, [r7, #12]
 8002068:	f000 f814 	bl	8002094 <prvInitialiseNewQueue>
 800206c:	e00d      	b.n	800208a <xQueueGenericCreate+0x92>
 800206e:	69fb      	ldr	r3, [r7, #28]
 8002070:	2b00      	cmp	r3, #0
 8002072:	d10a      	bne.n	800208a <xQueueGenericCreate+0x92>
 8002074:	f04f 0350 	mov.w	r3, #80	; 0x50
 8002078:	f383 8811 	msr	BASEPRI, r3
 800207c:	f3bf 8f6f 	isb	sy
 8002080:	f3bf 8f4f 	dsb	sy
 8002084:	613b      	str	r3, [r7, #16]
 8002086:	bf00      	nop
 8002088:	e7fe      	b.n	8002088 <xQueueGenericCreate+0x90>
 800208a:	69fb      	ldr	r3, [r7, #28]
 800208c:	4618      	mov	r0, r3
 800208e:	3720      	adds	r7, #32
 8002090:	46bd      	mov	sp, r7
 8002092:	bd80      	pop	{r7, pc}

08002094 <prvInitialiseNewQueue>:
 8002094:	b580      	push	{r7, lr}
 8002096:	b084      	sub	sp, #16
 8002098:	af00      	add	r7, sp, #0
 800209a:	60f8      	str	r0, [r7, #12]
 800209c:	60b9      	str	r1, [r7, #8]
 800209e:	607a      	str	r2, [r7, #4]
 80020a0:	70fb      	strb	r3, [r7, #3]
 80020a2:	68bb      	ldr	r3, [r7, #8]
 80020a4:	2b00      	cmp	r3, #0
 80020a6:	d103      	bne.n	80020b0 <prvInitialiseNewQueue+0x1c>
 80020a8:	69bb      	ldr	r3, [r7, #24]
 80020aa:	69ba      	ldr	r2, [r7, #24]
 80020ac:	601a      	str	r2, [r3, #0]
 80020ae:	e002      	b.n	80020b6 <prvInitialiseNewQueue+0x22>
 80020b0:	69bb      	ldr	r3, [r7, #24]
 80020b2:	687a      	ldr	r2, [r7, #4]
 80020b4:	601a      	str	r2, [r3, #0]
 80020b6:	69bb      	ldr	r3, [r7, #24]
 80020b8:	68fa      	ldr	r2, [r7, #12]
 80020ba:	63da      	str	r2, [r3, #60]	; 0x3c
 80020bc:	69bb      	ldr	r3, [r7, #24]
 80020be:	68ba      	ldr	r2, [r7, #8]
 80020c0:	641a      	str	r2, [r3, #64]	; 0x40
 80020c2:	2101      	movs	r1, #1
 80020c4:	69b8      	ldr	r0, [r7, #24]
 80020c6:	f7ff ff07 	bl	8001ed8 <xQueueGenericReset>
 80020ca:	69bb      	ldr	r3, [r7, #24]
 80020cc:	78fa      	ldrb	r2, [r7, #3]
 80020ce:	f883 204c 	strb.w	r2, [r3, #76]	; 0x4c
 80020d2:	bf00      	nop
 80020d4:	3710      	adds	r7, #16
 80020d6:	46bd      	mov	sp, r7
 80020d8:	bd80      	pop	{r7, pc}

080020da <prvInitialiseMutex>:
 80020da:	b580      	push	{r7, lr}
 80020dc:	b082      	sub	sp, #8
 80020de:	af00      	add	r7, sp, #0
 80020e0:	6078      	str	r0, [r7, #4]
 80020e2:	687b      	ldr	r3, [r7, #4]
 80020e4:	2b00      	cmp	r3, #0
 80020e6:	d00e      	beq.n	8002106 <prvInitialiseMutex+0x2c>
 80020e8:	687b      	ldr	r3, [r7, #4]
 80020ea:	2200      	movs	r2, #0
 80020ec:	609a      	str	r2, [r3, #8]
 80020ee:	687b      	ldr	r3, [r7, #4]
 80020f0:	2200      	movs	r2, #0
 80020f2:	601a      	str	r2, [r3, #0]
 80020f4:	687b      	ldr	r3, [r7, #4]
 80020f6:	2200      	movs	r2, #0
 80020f8:	60da      	str	r2, [r3, #12]
 80020fa:	2300      	movs	r3, #0
 80020fc:	2200      	movs	r2, #0
 80020fe:	2100      	movs	r1, #0
 8002100:	6878      	ldr	r0, [r7, #4]
 8002102:	f000 f8b4 	bl	800226e <xQueueGenericSend>
 8002106:	bf00      	nop
 8002108:	3708      	adds	r7, #8
 800210a:	46bd      	mov	sp, r7
 800210c:	bd80      	pop	{r7, pc}

0800210e <xQueueCreateMutex>:
 800210e:	b580      	push	{r7, lr}
 8002110:	b086      	sub	sp, #24
 8002112:	af00      	add	r7, sp, #0
 8002114:	4603      	mov	r3, r0
 8002116:	71fb      	strb	r3, [r7, #7]
 8002118:	2301      	movs	r3, #1
 800211a:	617b      	str	r3, [r7, #20]
 800211c:	2300      	movs	r3, #0
 800211e:	613b      	str	r3, [r7, #16]
 8002120:	79fb      	ldrb	r3, [r7, #7]
 8002122:	461a      	mov	r2, r3
 8002124:	6939      	ldr	r1, [r7, #16]
 8002126:	6978      	ldr	r0, [r7, #20]
 8002128:	f7ff ff66 	bl	8001ff8 <xQueueGenericCreate>
 800212c:	60f8      	str	r0, [r7, #12]
 800212e:	68f8      	ldr	r0, [r7, #12]
 8002130:	f7ff ffd3 	bl	80020da <prvInitialiseMutex>
 8002134:	68fb      	ldr	r3, [r7, #12]
 8002136:	4618      	mov	r0, r3
 8002138:	3718      	adds	r7, #24
 800213a:	46bd      	mov	sp, r7
 800213c:	bd80      	pop	{r7, pc}

0800213e <xQueueGiveMutexRecursive>:
 800213e:	b590      	push	{r4, r7, lr}
 8002140:	b087      	sub	sp, #28
 8002142:	af00      	add	r7, sp, #0
 8002144:	6078      	str	r0, [r7, #4]
 8002146:	687b      	ldr	r3, [r7, #4]
 8002148:	613b      	str	r3, [r7, #16]
 800214a:	693b      	ldr	r3, [r7, #16]
 800214c:	2b00      	cmp	r3, #0
 800214e:	d10a      	bne.n	8002166 <xQueueGiveMutexRecursive+0x28>
 8002150:	f04f 0350 	mov.w	r3, #80	; 0x50
 8002154:	f383 8811 	msr	BASEPRI, r3
 8002158:	f3bf 8f6f 	isb	sy
 800215c:	f3bf 8f4f 	dsb	sy
 8002160:	60fb      	str	r3, [r7, #12]
 8002162:	bf00      	nop
 8002164:	e7fe      	b.n	8002164 <xQueueGiveMutexRecursive+0x26>
 8002166:	693b      	ldr	r3, [r7, #16]
 8002168:	689c      	ldr	r4, [r3, #8]
 800216a:	f004 f98b 	bl	8006484 <xTaskGetCurrentTaskHandle>
 800216e:	4603      	mov	r3, r0
 8002170:	429c      	cmp	r4, r3
 8002172:	d111      	bne.n	8002198 <xQueueGiveMutexRecursive+0x5a>
 8002174:	693b      	ldr	r3, [r7, #16]
 8002176:	68db      	ldr	r3, [r3, #12]
 8002178:	1e5a      	subs	r2, r3, #1
 800217a:	693b      	ldr	r3, [r7, #16]
 800217c:	60da      	str	r2, [r3, #12]
 800217e:	693b      	ldr	r3, [r7, #16]
 8002180:	68db      	ldr	r3, [r3, #12]
 8002182:	2b00      	cmp	r3, #0
 8002184:	d105      	bne.n	8002192 <xQueueGiveMutexRecursive+0x54>
 8002186:	2300      	movs	r3, #0
 8002188:	2200      	movs	r2, #0
 800218a:	2100      	movs	r1, #0
 800218c:	6938      	ldr	r0, [r7, #16]
 800218e:	f000 f86e 	bl	800226e <xQueueGenericSend>
 8002192:	2301      	movs	r3, #1
 8002194:	617b      	str	r3, [r7, #20]
 8002196:	e001      	b.n	800219c <xQueueGiveMutexRecursive+0x5e>
 8002198:	2300      	movs	r3, #0
 800219a:	617b      	str	r3, [r7, #20]
 800219c:	697b      	ldr	r3, [r7, #20]
 800219e:	4618      	mov	r0, r3
 80021a0:	371c      	adds	r7, #28
 80021a2:	46bd      	mov	sp, r7
 80021a4:	bd90      	pop	{r4, r7, pc}

080021a6 <xQueueTakeMutexRecursive>:
 80021a6:	b590      	push	{r4, r7, lr}
 80021a8:	b087      	sub	sp, #28
 80021aa:	af00      	add	r7, sp, #0
 80021ac:	6078      	str	r0, [r7, #4]
 80021ae:	6039      	str	r1, [r7, #0]
 80021b0:	687b      	ldr	r3, [r7, #4]
 80021b2:	613b      	str	r3, [r7, #16]
 80021b4:	693b      	ldr	r3, [r7, #16]
 80021b6:	2b00      	cmp	r3, #0
 80021b8:	d10a      	bne.n	80021d0 <xQueueTakeMutexRecursive+0x2a>
 80021ba:	f04f 0350 	mov.w	r3, #80	; 0x50
 80021be:	f383 8811 	msr	BASEPRI, r3
 80021c2:	f3bf 8f6f 	isb	sy
 80021c6:	f3bf 8f4f 	dsb	sy
 80021ca:	60fb      	str	r3, [r7, #12]
 80021cc:	bf00      	nop
 80021ce:	e7fe      	b.n	80021ce <xQueueTakeMutexRecursive+0x28>
 80021d0:	693b      	ldr	r3, [r7, #16]
 80021d2:	689c      	ldr	r4, [r3, #8]
 80021d4:	f004 f956 	bl	8006484 <xTaskGetCurrentTaskHandle>
 80021d8:	4603      	mov	r3, r0
 80021da:	429c      	cmp	r4, r3
 80021dc:	d107      	bne.n	80021ee <xQueueTakeMutexRecursive+0x48>
 80021de:	693b      	ldr	r3, [r7, #16]
 80021e0:	68db      	ldr	r3, [r3, #12]
 80021e2:	1c5a      	adds	r2, r3, #1
 80021e4:	693b      	ldr	r3, [r7, #16]
 80021e6:	60da      	str	r2, [r3, #12]
 80021e8:	2301      	movs	r3, #1
 80021ea:	617b      	str	r3, [r7, #20]
 80021ec:	e00c      	b.n	8002208 <xQueueTakeMutexRecursive+0x62>
 80021ee:	6839      	ldr	r1, [r7, #0]
 80021f0:	6938      	ldr	r0, [r7, #16]
 80021f2:	f000 fb71 	bl	80028d8 <xQueueSemaphoreTake>
 80021f6:	6178      	str	r0, [r7, #20]
 80021f8:	697b      	ldr	r3, [r7, #20]
 80021fa:	2b00      	cmp	r3, #0
 80021fc:	d004      	beq.n	8002208 <xQueueTakeMutexRecursive+0x62>
 80021fe:	693b      	ldr	r3, [r7, #16]
 8002200:	68db      	ldr	r3, [r3, #12]
 8002202:	1c5a      	adds	r2, r3, #1
 8002204:	693b      	ldr	r3, [r7, #16]
 8002206:	60da      	str	r2, [r3, #12]
 8002208:	697b      	ldr	r3, [r7, #20]
 800220a:	4618      	mov	r0, r3
 800220c:	371c      	adds	r7, #28
 800220e:	46bd      	mov	sp, r7
 8002210:	bd90      	pop	{r4, r7, pc}

08002212 <xQueueCreateCountingSemaphore>:
 8002212:	b580      	push	{r7, lr}
 8002214:	b084      	sub	sp, #16
 8002216:	af00      	add	r7, sp, #0
 8002218:	6078      	str	r0, [r7, #4]
 800221a:	6039      	str	r1, [r7, #0]
 800221c:	2300      	movs	r3, #0
 800221e:	60fb      	str	r3, [r7, #12]
 8002220:	687b      	ldr	r3, [r7, #4]
 8002222:	2b00      	cmp	r3, #0
 8002224:	d010      	beq.n	8002248 <xQueueCreateCountingSemaphore+0x36>
 8002226:	683a      	ldr	r2, [r7, #0]
 8002228:	687b      	ldr	r3, [r7, #4]
 800222a:	429a      	cmp	r2, r3
 800222c:	d80c      	bhi.n	8002248 <xQueueCreateCountingSemaphore+0x36>
 800222e:	2202      	movs	r2, #2
 8002230:	2100      	movs	r1, #0
 8002232:	6878      	ldr	r0, [r7, #4]
 8002234:	f7ff fee0 	bl	8001ff8 <xQueueGenericCreate>
 8002238:	60f8      	str	r0, [r7, #12]
 800223a:	68fb      	ldr	r3, [r7, #12]
 800223c:	2b00      	cmp	r3, #0
 800223e:	d011      	beq.n	8002264 <xQueueCreateCountingSemaphore+0x52>
 8002240:	68fb      	ldr	r3, [r7, #12]
 8002242:	683a      	ldr	r2, [r7, #0]
 8002244:	639a      	str	r2, [r3, #56]	; 0x38
 8002246:	e00d      	b.n	8002264 <xQueueCreateCountingSemaphore+0x52>
 8002248:	68fb      	ldr	r3, [r7, #12]
 800224a:	2b00      	cmp	r3, #0
 800224c:	d10a      	bne.n	8002264 <xQueueCreateCountingSemaphore+0x52>
 800224e:	f04f 0350 	mov.w	r3, #80	; 0x50
 8002252:	f383 8811 	msr	BASEPRI, r3
 8002256:	f3bf 8f6f 	isb	sy
 800225a:	f3bf 8f4f 	dsb	sy
 800225e:	60bb      	str	r3, [r7, #8]
 8002260:	bf00      	nop
 8002262:	e7fe      	b.n	8002262 <xQueueCreateCountingSemaphore+0x50>
 8002264:	68fb      	ldr	r3, [r7, #12]
 8002266:	4618      	mov	r0, r3
 8002268:	3710      	adds	r7, #16
 800226a:	46bd      	mov	sp, r7
 800226c:	bd80      	pop	{r7, pc}

0800226e <xQueueGenericSend>:
 800226e:	b580      	push	{r7, lr}
 8002270:	b08e      	sub	sp, #56	; 0x38
 8002272:	af00      	add	r7, sp, #0
 8002274:	60f8      	str	r0, [r7, #12]
 8002276:	60b9      	str	r1, [r7, #8]
 8002278:	607a      	str	r2, [r7, #4]
 800227a:	603b      	str	r3, [r7, #0]
 800227c:	2300      	movs	r3, #0
 800227e:	637b      	str	r3, [r7, #52]	; 0x34
 8002280:	68fb      	ldr	r3, [r7, #12]
 8002282:	633b      	str	r3, [r7, #48]	; 0x30
 8002284:	6b3b      	ldr	r3, [r7, #48]	; 0x30
 8002286:	2b00      	cmp	r3, #0
 8002288:	d10a      	bne.n	80022a0 <xQueueGenericSend+0x32>
 800228a:	f04f 0350 	mov.w	r3, #80	; 0x50
 800228e:	f383 8811 	msr	BASEPRI, r3
 8002292:	f3bf 8f6f 	isb	sy
 8002296:	f3bf 8f4f 	dsb	sy
 800229a:	62bb      	str	r3, [r7, #40]	; 0x28
 800229c:	bf00      	nop
 800229e:	e7fe      	b.n	800229e <xQueueGenericSend+0x30>
 80022a0:	68bb      	ldr	r3, [r7, #8]
 80022a2:	2b00      	cmp	r3, #0
 80022a4:	d103      	bne.n	80022ae <xQueueGenericSend+0x40>
 80022a6:	6b3b      	ldr	r3, [r7, #48]	; 0x30
 80022a8:	6c1b      	ldr	r3, [r3, #64]	; 0x40
 80022aa:	2b00      	cmp	r3, #0
 80022ac:	d101      	bne.n	80022b2 <xQueueGenericSend+0x44>
 80022ae:	2301      	movs	r3, #1
 80022b0:	e000      	b.n	80022b4 <xQueueGenericSend+0x46>
 80022b2:	2300      	movs	r3, #0
 80022b4:	2b00      	cmp	r3, #0
 80022b6:	d10a      	bne.n	80022ce <xQueueGenericSend+0x60>
 80022b8:	f04f 0350 	mov.w	r3, #80	; 0x50
 80022bc:	f383 8811 	msr	BASEPRI, r3
 80022c0:	f3bf 8f6f 	isb	sy
 80022c4:	f3bf 8f4f 	dsb	sy
 80022c8:	627b      	str	r3, [r7, #36]	; 0x24
 80022ca:	bf00      	nop
 80022cc:	e7fe      	b.n	80022cc <xQueueGenericSend+0x5e>
 80022ce:	683b      	ldr	r3, [r7, #0]
 80022d0:	2b02      	cmp	r3, #2
 80022d2:	d103      	bne.n	80022dc <xQueueGenericSend+0x6e>
 80022d4:	6b3b      	ldr	r3, [r7, #48]	; 0x30
 80022d6:	6bdb      	ldr	r3, [r3, #60]	; 0x3c
 80022d8:	2b01      	cmp	r3, #1
 80022da:	d101      	bne.n	80022e0 <xQueueGenericSend+0x72>
 80022dc:	2301      	movs	r3, #1
 80022de:	e000      	b.n	80022e2 <xQueueGenericSend+0x74>
 80022e0:	2300      	movs	r3, #0
 80022e2:	2b00      	cmp	r3, #0
 80022e4:	d10a      	bne.n	80022fc <xQueueGenericSend+0x8e>
 80022e6:	f04f 0350 	mov.w	r3, #80	; 0x50
 80022ea:	f383 8811 	msr	BASEPRI, r3
 80022ee:	f3bf 8f6f 	isb	sy
 80022f2:	f3bf 8f4f 	dsb	sy
 80022f6:	623b      	str	r3, [r7, #32]
 80022f8:	bf00      	nop
 80022fa:	e7fe      	b.n	80022fa <xQueueGenericSend+0x8c>
 80022fc:	f004 f8ea 	bl	80064d4 <xTaskGetSchedulerState>
 8002300:	4603      	mov	r3, r0
 8002302:	2b00      	cmp	r3, #0
 8002304:	d102      	bne.n	800230c <xQueueGenericSend+0x9e>
 8002306:	687b      	ldr	r3, [r7, #4]
 8002308:	2b00      	cmp	r3, #0
 800230a:	d101      	bne.n	8002310 <xQueueGenericSend+0xa2>
 800230c:	2301      	movs	r3, #1
 800230e:	e000      	b.n	8002312 <xQueueGenericSend+0xa4>
 8002310:	2300      	movs	r3, #0
 8002312:	2b00      	cmp	r3, #0
 8002314:	d10a      	bne.n	800232c <xQueueGenericSend+0xbe>
 8002316:	f04f 0350 	mov.w	r3, #80	; 0x50
 800231a:	f383 8811 	msr	BASEPRI, r3
 800231e:	f3bf 8f6f 	isb	sy
 8002322:	f3bf 8f4f 	dsb	sy
 8002326:	61fb      	str	r3, [r7, #28]
 8002328:	bf00      	nop
 800232a:	e7fe      	b.n	800232a <xQueueGenericSend+0xbc>
 800232c:	f7fe fd96 	bl	8000e5c <vPortEnterCritical>
 8002330:	6b3b      	ldr	r3, [r7, #48]	; 0x30
 8002332:	6b9a      	ldr	r2, [r3, #56]	; 0x38
 8002334:	6b3b      	ldr	r3, [r7, #48]	; 0x30
 8002336:	6bdb      	ldr	r3, [r3, #60]	; 0x3c
 8002338:	429a      	cmp	r2, r3
 800233a:	d302      	bcc.n	8002342 <xQueueGenericSend+0xd4>
 800233c:	683b      	ldr	r3, [r7, #0]
 800233e:	2b02      	cmp	r3, #2
 8002340:	d129      	bne.n	8002396 <xQueueGenericSend+0x128>
 8002342:	683a      	ldr	r2, [r7, #0]
 8002344:	68b9      	ldr	r1, [r7, #8]
 8002346:	6b38      	ldr	r0, [r7, #48]	; 0x30
 8002348:	f000 fe7a 	bl	8003040 <prvCopyDataToQueue>
 800234c:	62f8      	str	r0, [r7, #44]	; 0x2c
 800234e:	6b3b      	ldr	r3, [r7, #48]	; 0x30
 8002350:	6a5b      	ldr	r3, [r3, #36]	; 0x24
 8002352:	2b00      	cmp	r3, #0
 8002354:	d010      	beq.n	8002378 <xQueueGenericSend+0x10a>
 8002356:	6b3b      	ldr	r3, [r7, #48]	; 0x30
 8002358:	3324      	adds	r3, #36	; 0x24
 800235a:	4618      	mov	r0, r3
 800235c:	f003 fc8a 	bl	8005c74 <xTaskRemoveFromEventList>
 8002360:	4603      	mov	r3, r0
 8002362:	2b00      	cmp	r3, #0
 8002364:	d013      	beq.n	800238e <xQueueGenericSend+0x120>
 8002366:	4b40      	ldr	r3, [pc, #256]	; (8002468 <xQueueGenericSend+0x1fa>)
 8002368:	f04f 5280 	mov.w	r2, #268435456	; 0x10000000
 800236c:	601a      	str	r2, [r3, #0]
 800236e:	f3bf 8f4f 	dsb	sy
 8002372:	f3bf 8f6f 	isb	sy
 8002376:	e00a      	b.n	800238e <xQueueGenericSend+0x120>
 8002378:	6afb      	ldr	r3, [r7, #44]	; 0x2c
 800237a:	2b00      	cmp	r3, #0
 800237c:	d007      	beq.n	800238e <xQueueGenericSend+0x120>
 800237e:	4b3a      	ldr	r3, [pc, #232]	; (8002468 <xQueueGenericSend+0x1fa>)
 8002380:	f04f 5280 	mov.w	r2, #268435456	; 0x10000000
 8002384:	601a      	str	r2, [r3, #0]
 8002386:	f3bf 8f4f 	dsb	sy
 800238a:	f3bf 8f6f 	isb	sy
 800238e:	f7fe fd95 	bl	8000ebc <vPortExitCritical>
 8002392:	2301      	movs	r3, #1
 8002394:	e063      	b.n	800245e <xQueueGenericSend+0x1f0>
 8002396:	687b      	ldr	r3, [r7, #4]
 8002398:	2b00      	cmp	r3, #0
 800239a:	d103      	bne.n	80023a4 <xQueueGenericSend+0x136>
 800239c:	f7fe fd8e 	bl	8000ebc <vPortExitCritical>
 80023a0:	2300      	movs	r3, #0
 80023a2:	e05c      	b.n	800245e <xQueueGenericSend+0x1f0>
 80023a4:	6b7b      	ldr	r3, [r7, #52]	; 0x34
 80023a6:	2b00      	cmp	r3, #0
 80023a8:	d106      	bne.n	80023b8 <xQueueGenericSend+0x14a>
 80023aa:	f107 0314 	add.w	r3, r7, #20
 80023ae:	4618      	mov	r0, r3
 80023b0:	f003 fe20 	bl	8005ff4 <vTaskInternalSetTimeOutState>
 80023b4:	2301      	movs	r3, #1
 80023b6:	637b      	str	r3, [r7, #52]	; 0x34
 80023b8:	f7fe fd80 	bl	8000ebc <vPortExitCritical>
 80023bc:	f003 f804 	bl	80053c8 <vTaskSuspendAll>
 80023c0:	f7fe fd4c 	bl	8000e5c <vPortEnterCritical>
 80023c4:	6b3b      	ldr	r3, [r7, #48]	; 0x30
 80023c6:	f893 3044 	ldrb.w	r3, [r3, #68]	; 0x44
 80023ca:	b25b      	sxtb	r3, r3
 80023cc:	f1b3 3fff 	cmp.w	r3, #4294967295	; 0xffffffff
 80023d0:	d103      	bne.n	80023da <xQueueGenericSend+0x16c>
 80023d2:	6b3b      	ldr	r3, [r7, #48]	; 0x30
 80023d4:	2200      	movs	r2, #0
 80023d6:	f883 2044 	strb.w	r2, [r3, #68]	; 0x44
 80023da:	6b3b      	ldr	r3, [r7, #48]	; 0x30
 80023dc:	f893 3045 	ldrb.w	r3, [r3, #69]	; 0x45
 80023e0:	b25b      	sxtb	r3, r3
 80023e2:	f1b3 3fff 	cmp.w	r3, #4294967295	; 0xffffffff
 80023e6:	d103      	bne.n	80023f0 <xQueueGenericSend+0x182>
 80023e8:	6b3b      	ldr	r3, [r7, #48]	; 0x30
 80023ea:	2200      	movs	r2, #0
 80023ec:	f883 2045 	strb.w	r2, [r3, #69]	; 0x45
 80023f0:	f7fe fd64 	bl	8000ebc <vPortExitCritical>
 80023f4:	1d3a      	adds	r2, r7, #4
 80023f6:	f107 0314 	add.w	r3, r7, #20
 80023fa:	4611      	mov	r1, r2
 80023fc:	4618      	mov	r0, r3
 80023fe:	f003 fe0f 	bl	8006020 <xTaskCheckForTimeOut>
 8002402:	4603      	mov	r3, r0
 8002404:	2b00      	cmp	r3, #0
 8002406:	d124      	bne.n	8002452 <xQueueGenericSend+0x1e4>
 8002408:	6b38      	ldr	r0, [r7, #48]	; 0x30
 800240a:	f000 ff35 	bl	8003278 <prvIsQueueFull>
 800240e:	4603      	mov	r3, r0
 8002410:	2b00      	cmp	r3, #0
 8002412:	d018      	beq.n	8002446 <xQueueGenericSend+0x1d8>
 8002414:	6b3b      	ldr	r3, [r7, #48]	; 0x30
 8002416:	3310      	adds	r3, #16
 8002418:	687a      	ldr	r2, [r7, #4]
 800241a:	4611      	mov	r1, r2
 800241c:	4618      	mov	r0, r3
 800241e:	f003 fb69 	bl	8005af4 <vTaskPlaceOnEventList>
 8002422:	6b38      	ldr	r0, [r7, #48]	; 0x30
 8002424:	f000 fe9c 	bl	8003160 <prvUnlockQueue>
 8002428:	f002 ffdc 	bl	80053e4 <xTaskResumeAll>
 800242c:	4603      	mov	r3, r0
 800242e:	2b00      	cmp	r3, #0
 8002430:	f47f af7c 	bne.w	800232c <xQueueGenericSend+0xbe>
 8002434:	4b0c      	ldr	r3, [pc, #48]	; (8002468 <xQueueGenericSend+0x1fa>)
 8002436:	f04f 5280 	mov.w	r2, #268435456	; 0x10000000
 800243a:	601a      	str	r2, [r3, #0]
 800243c:	f3bf 8f4f 	dsb	sy
 8002440:	f3bf 8f6f 	isb	sy
 8002444:	e772      	b.n	800232c <xQueueGenericSend+0xbe>
 8002446:	6b38      	ldr	r0, [r7, #48]	; 0x30
 8002448:	f000 fe8a 	bl	8003160 <prvUnlockQueue>
 800244c:	f002 ffca 	bl	80053e4 <xTaskResumeAll>
 8002450:	e76c      	b.n	800232c <xQueueGenericSend+0xbe>
 8002452:	6b38      	ldr	r0, [r7, #48]	; 0x30
 8002454:	f000 fe84 	bl	8003160 <prvUnlockQueue>
 8002458:	f002 ffc4 	bl	80053e4 <xTaskResumeAll>
 800245c:	2300      	movs	r3, #0
 800245e:	4618      	mov	r0, r3
 8002460:	3738      	adds	r7, #56	; 0x38
 8002462:	46bd      	mov	sp, r7
 8002464:	bd80      	pop	{r7, pc}
 8002466:	bf00      	nop
 8002468:	e000ed04 	and	lr, r0, r4, lsl #26

0800246c <xQueueGenericSendFromISR>:
 800246c:	b580      	push	{r7, lr}
 800246e:	b092      	sub	sp, #72	; 0x48
 8002470:	af00      	add	r7, sp, #0
 8002472:	60f8      	str	r0, [r7, #12]
 8002474:	60b9      	str	r1, [r7, #8]
 8002476:	607a      	str	r2, [r7, #4]
 8002478:	603b      	str	r3, [r7, #0]
 800247a:	68fb      	ldr	r3, [r7, #12]
 800247c:	643b      	str	r3, [r7, #64]	; 0x40
 800247e:	6c3b      	ldr	r3, [r7, #64]	; 0x40
 8002480:	2b00      	cmp	r3, #0
 8002482:	d10a      	bne.n	800249a <xQueueGenericSendFromISR+0x2e>
 8002484:	f04f 0350 	mov.w	r3, #80	; 0x50
 8002488:	f383 8811 	msr	BASEPRI, r3
 800248c:	f3bf 8f6f 	isb	sy
 8002490:	f3bf 8f4f 	dsb	sy
 8002494:	62fb      	str	r3, [r7, #44]	; 0x2c
 8002496:	bf00      	nop
 8002498:	e7fe      	b.n	8002498 <xQueueGenericSendFromISR+0x2c>
 800249a:	68bb      	ldr	r3, [r7, #8]
 800249c:	2b00      	cmp	r3, #0
 800249e:	d103      	bne.n	80024a8 <xQueueGenericSendFromISR+0x3c>
 80024a0:	6c3b      	ldr	r3, [r7, #64]	; 0x40
 80024a2:	6c1b      	ldr	r3, [r3, #64]	; 0x40
 80024a4:	2b00      	cmp	r3, #0
 80024a6:	d101      	bne.n	80024ac <xQueueGenericSendFromISR+0x40>
 80024a8:	2301      	movs	r3, #1
 80024aa:	e000      	b.n	80024ae <xQueueGenericSendFromISR+0x42>
 80024ac:	2300      	movs	r3, #0
 80024ae:	2b00      	cmp	r3, #0
 80024b0:	d10a      	bne.n	80024c8 <xQueueGenericSendFromISR+0x5c>
 80024b2:	f04f 0350 	mov.w	r3, #80	; 0x50
 80024b6:	f383 8811 	msr	BASEPRI, r3
 80024ba:	f3bf 8f6f 	isb	sy
 80024be:	f3bf 8f4f 	dsb	sy
 80024c2:	62bb      	str	r3, [r7, #40]	; 0x28
 80024c4:	bf00      	nop
 80024c6:	e7fe      	b.n	80024c6 <xQueueGenericSendFromISR+0x5a>
 80024c8:	683b      	ldr	r3, [r7, #0]
 80024ca:	2b02      	cmp	r3, #2
 80024cc:	d103      	bne.n	80024d6 <xQueueGenericSendFromISR+0x6a>
 80024ce:	6c3b      	ldr	r3, [r7, #64]	; 0x40
 80024d0:	6bdb      	ldr	r3, [r3, #60]	; 0x3c
 80024d2:	2b01      	cmp	r3, #1
 80024d4:	d101      	bne.n	80024da <xQueueGenericSendFromISR+0x6e>
 80024d6:	2301      	movs	r3, #1
 80024d8:	e000      	b.n	80024dc <xQueueGenericSendFromISR+0x70>
 80024da:	2300      	movs	r3, #0
 80024dc:	2b00      	cmp	r3, #0
 80024de:	d10a      	bne.n	80024f6 <xQueueGenericSendFromISR+0x8a>
 80024e0:	f04f 0350 	mov.w	r3, #80	; 0x50
 80024e4:	f383 8811 	msr	BASEPRI, r3
 80024e8:	f3bf 8f6f 	isb	sy
 80024ec:	f3bf 8f4f 	dsb	sy
 80024f0:	627b      	str	r3, [r7, #36]	; 0x24
 80024f2:	bf00      	nop
 80024f4:	e7fe      	b.n	80024f4 <xQueueGenericSendFromISR+0x88>
 80024f6:	f7fe fd86 	bl	8001006 <vPortValidateInterruptPriority>
 80024fa:	f3ef 8211 	mrs	r2, BASEPRI
 80024fe:	f04f 0350 	mov.w	r3, #80	; 0x50
 8002502:	f383 8811 	msr	BASEPRI, r3
 8002506:	f3bf 8f6f 	isb	sy
 800250a:	f3bf 8f4f 	dsb	sy
 800250e:	623a      	str	r2, [r7, #32]
 8002510:	61fb      	str	r3, [r7, #28]
 8002512:	6a3b      	ldr	r3, [r7, #32]
 8002514:	63fb      	str	r3, [r7, #60]	; 0x3c
 8002516:	6c3b      	ldr	r3, [r7, #64]	; 0x40
 8002518:	6b9a      	ldr	r2, [r3, #56]	; 0x38
 800251a:	6c3b      	ldr	r3, [r7, #64]	; 0x40
 800251c:	6bdb      	ldr	r3, [r3, #60]	; 0x3c
 800251e:	429a      	cmp	r2, r3
 8002520:	d302      	bcc.n	8002528 <xQueueGenericSendFromISR+0xbc>
 8002522:	683b      	ldr	r3, [r7, #0]
 8002524:	2b02      	cmp	r3, #2
 8002526:	d146      	bne.n	80025b6 <xQueueGenericSendFromISR+0x14a>
 8002528:	6c3b      	ldr	r3, [r7, #64]	; 0x40
 800252a:	f893 3045 	ldrb.w	r3, [r3, #69]	; 0x45
 800252e:	f887 303b 	strb.w	r3, [r7, #59]	; 0x3b
 8002532:	6c3b      	ldr	r3, [r7, #64]	; 0x40
 8002534:	6b9b      	ldr	r3, [r3, #56]	; 0x38
 8002536:	637b      	str	r3, [r7, #52]	; 0x34
 8002538:	683a      	ldr	r2, [r7, #0]
 800253a:	68b9      	ldr	r1, [r7, #8]
 800253c:	6c38      	ldr	r0, [r7, #64]	; 0x40
 800253e:	f000 fd7f 	bl	8003040 <prvCopyDataToQueue>
 8002542:	f997 303b 	ldrsb.w	r3, [r7, #59]	; 0x3b
 8002546:	f1b3 3fff 	cmp.w	r3, #4294967295	; 0xffffffff
 800254a:	d112      	bne.n	8002572 <xQueueGenericSendFromISR+0x106>
 800254c:	6c3b      	ldr	r3, [r7, #64]	; 0x40
 800254e:	6a5b      	ldr	r3, [r3, #36]	; 0x24
 8002550:	2b00      	cmp	r3, #0
 8002552:	d02d      	beq.n	80025b0 <xQueueGenericSendFromISR+0x144>
 8002554:	6c3b      	ldr	r3, [r7, #64]	; 0x40
 8002556:	3324      	adds	r3, #36	; 0x24
 8002558:	4618      	mov	r0, r3
 800255a:	f003 fb8b 	bl	8005c74 <xTaskRemoveFromEventList>
 800255e:	4603      	mov	r3, r0
 8002560:	2b00      	cmp	r3, #0
 8002562:	d025      	beq.n	80025b0 <xQueueGenericSendFromISR+0x144>
 8002564:	687b      	ldr	r3, [r7, #4]
 8002566:	2b00      	cmp	r3, #0
 8002568:	d022      	beq.n	80025b0 <xQueueGenericSendFromISR+0x144>
 800256a:	687b      	ldr	r3, [r7, #4]
 800256c:	2201      	movs	r2, #1
 800256e:	601a      	str	r2, [r3, #0]
 8002570:	e01e      	b.n	80025b0 <xQueueGenericSendFromISR+0x144>
 8002572:	f003 f861 	bl	8005638 <uxTaskGetNumberOfTasks>
 8002576:	6338      	str	r0, [r7, #48]	; 0x30
 8002578:	f997 303b 	ldrsb.w	r3, [r7, #59]	; 0x3b
 800257c:	6b3a      	ldr	r2, [r7, #48]	; 0x30
 800257e:	429a      	cmp	r2, r3
 8002580:	d916      	bls.n	80025b0 <xQueueGenericSendFromISR+0x144>
 8002582:	f997 303b 	ldrsb.w	r3, [r7, #59]	; 0x3b
 8002586:	2b7f      	cmp	r3, #127	; 0x7f
 8002588:	d10a      	bne.n	80025a0 <xQueueGenericSendFromISR+0x134>
 800258a:	f04f 0350 	mov.w	r3, #80	; 0x50
 800258e:	f383 8811 	msr	BASEPRI, r3
 8002592:	f3bf 8f6f 	isb	sy
 8002596:	f3bf 8f4f 	dsb	sy
 800259a:	61bb      	str	r3, [r7, #24]
 800259c:	bf00      	nop
 800259e:	e7fe      	b.n	800259e <xQueueGenericSendFromISR+0x132>
 80025a0:	f897 303b 	ldrb.w	r3, [r7, #59]	; 0x3b
 80025a4:	3301      	adds	r3, #1
 80025a6:	b2db      	uxtb	r3, r3
 80025a8:	b25a      	sxtb	r2, r3
 80025aa:	6c3b      	ldr	r3, [r7, #64]	; 0x40
 80025ac:	f883 2045 	strb.w	r2, [r3, #69]	; 0x45
 80025b0:	2301      	movs	r3, #1
 80025b2:	647b      	str	r3, [r7, #68]	; 0x44
 80025b4:	e001      	b.n	80025ba <xQueueGenericSendFromISR+0x14e>
 80025b6:	2300      	movs	r3, #0
 80025b8:	647b      	str	r3, [r7, #68]	; 0x44
 80025ba:	6bfb      	ldr	r3, [r7, #60]	; 0x3c
 80025bc:	617b      	str	r3, [r7, #20]
 80025be:	697b      	ldr	r3, [r7, #20]
 80025c0:	f383 8811 	msr	BASEPRI, r3
 80025c4:	bf00      	nop
 80025c6:	6c7b      	ldr	r3, [r7, #68]	; 0x44
 80025c8:	4618      	mov	r0, r3
 80025ca:	3748      	adds	r7, #72	; 0x48
 80025cc:	46bd      	mov	sp, r7
 80025ce:	bd80      	pop	{r7, pc}

080025d0 <xQueueGiveFromISR>:
 80025d0:	b580      	push	{r7, lr}
 80025d2:	b090      	sub	sp, #64	; 0x40
 80025d4:	af00      	add	r7, sp, #0
 80025d6:	6078      	str	r0, [r7, #4]
 80025d8:	6039      	str	r1, [r7, #0]
 80025da:	687b      	ldr	r3, [r7, #4]
 80025dc:	63bb      	str	r3, [r7, #56]	; 0x38
 80025de:	6bbb      	ldr	r3, [r7, #56]	; 0x38
 80025e0:	2b00      	cmp	r3, #0
 80025e2:	d10a      	bne.n	80025fa <xQueueGiveFromISR+0x2a>
 80025e4:	f04f 0350 	mov.w	r3, #80	; 0x50
 80025e8:	f383 8811 	msr	BASEPRI, r3
 80025ec:	f3bf 8f6f 	isb	sy
 80025f0:	f3bf 8f4f 	dsb	sy
 80025f4:	627b      	str	r3, [r7, #36]	; 0x24
 80025f6:	bf00      	nop
 80025f8:	e7fe      	b.n	80025f8 <xQueueGiveFromISR+0x28>
 80025fa:	6bbb      	ldr	r3, [r7, #56]	; 0x38
 80025fc:	6c1b      	ldr	r3, [r3, #64]	; 0x40
 80025fe:	2b00      	cmp	r3, #0
 8002600:	d00a      	beq.n	8002618 <xQueueGiveFromISR+0x48>
 8002602:	f04f 0350 	mov.w	r3, #80	; 0x50
 8002606:	f383 8811 	msr	BASEPRI, r3
 800260a:	f3bf 8f6f 	isb	sy
 800260e:	f3bf 8f4f 	dsb	sy
 8002612:	623b      	str	r3, [r7, #32]
 8002614:	bf00      	nop
 8002616:	e7fe      	b.n	8002616 <xQueueGiveFromISR+0x46>
 8002618:	6bbb      	ldr	r3, [r7, #56]	; 0x38
 800261a:	681b      	ldr	r3, [r3, #0]
 800261c:	2b00      	cmp	r3, #0
 800261e:	d103      	bne.n	8002628 <xQueueGiveFromISR+0x58>
 8002620:	6bbb      	ldr	r3, [r7, #56]	; 0x38
 8002622:	689b      	ldr	r3, [r3, #8]
 8002624:	2b00      	cmp	r3, #0
 8002626:	d101      	bne.n	800262c <xQueueGiveFromISR+0x5c>
 8002628:	2301      	movs	r3, #1
 800262a:	e000      	b.n	800262e <xQueueGiveFromISR+0x5e>
 800262c:	2300      	movs	r3, #0
 800262e:	2b00      	cmp	r3, #0
 8002630:	d10a      	bne.n	8002648 <xQueueGiveFromISR+0x78>
 8002632:	f04f 0350 	mov.w	r3, #80	; 0x50
 8002636:	f383 8811 	msr	BASEPRI, r3
 800263a:	f3bf 8f6f 	isb	sy
 800263e:	f3bf 8f4f 	dsb	sy
 8002642:	61fb      	str	r3, [r7, #28]
 8002644:	bf00      	nop
 8002646:	e7fe      	b.n	8002646 <xQueueGiveFromISR+0x76>
 8002648:	f7fe fcdd 	bl	8001006 <vPortValidateInterruptPriority>
 800264c:	f3ef 8211 	mrs	r2, BASEPRI
 8002650:	f04f 0350 	mov.w	r3, #80	; 0x50
 8002654:	f383 8811 	msr	BASEPRI, r3
 8002658:	f3bf 8f6f 	isb	sy
 800265c:	f3bf 8f4f 	dsb	sy
 8002660:	61ba      	str	r2, [r7, #24]
 8002662:	617b      	str	r3, [r7, #20]
 8002664:	69bb      	ldr	r3, [r7, #24]
 8002666:	637b      	str	r3, [r7, #52]	; 0x34
 8002668:	6bbb      	ldr	r3, [r7, #56]	; 0x38
 800266a:	6b9b      	ldr	r3, [r3, #56]	; 0x38
 800266c:	633b      	str	r3, [r7, #48]	; 0x30
 800266e:	6bbb      	ldr	r3, [r7, #56]	; 0x38
 8002670:	6bdb      	ldr	r3, [r3, #60]	; 0x3c
 8002672:	6b3a      	ldr	r2, [r7, #48]	; 0x30
 8002674:	429a      	cmp	r2, r3
 8002676:	d242      	bcs.n	80026fe <xQueueGiveFromISR+0x12e>
 8002678:	6bbb      	ldr	r3, [r7, #56]	; 0x38
 800267a:	f893 3045 	ldrb.w	r3, [r3, #69]	; 0x45
 800267e:	f887 302f 	strb.w	r3, [r7, #47]	; 0x2f
 8002682:	6b3b      	ldr	r3, [r7, #48]	; 0x30
 8002684:	1c5a      	adds	r2, r3, #1
 8002686:	6bbb      	ldr	r3, [r7, #56]	; 0x38
 8002688:	639a      	str	r2, [r3, #56]	; 0x38
 800268a:	f997 302f 	ldrsb.w	r3, [r7, #47]	; 0x2f
 800268e:	f1b3 3fff 	cmp.w	r3, #4294967295	; 0xffffffff
 8002692:	d112      	bne.n	80026ba <xQueueGiveFromISR+0xea>
 8002694:	6bbb      	ldr	r3, [r7, #56]	; 0x38
 8002696:	6a5b      	ldr	r3, [r3, #36]	; 0x24
 8002698:	2b00      	cmp	r3, #0
 800269a:	d02d      	beq.n	80026f8 <xQueueGiveFromISR+0x128>
 800269c:	6bbb      	ldr	r3, [r7, #56]	; 0x38
 800269e:	3324      	adds	r3, #36	; 0x24
 80026a0:	4618      	mov	r0, r3
 80026a2:	f003 fae7 	bl	8005c74 <xTaskRemoveFromEventList>
 80026a6:	4603      	mov	r3, r0
 80026a8:	2b00      	cmp	r3, #0
 80026aa:	d025      	beq.n	80026f8 <xQueueGiveFromISR+0x128>
 80026ac:	683b      	ldr	r3, [r7, #0]
 80026ae:	2b00      	cmp	r3, #0
 80026b0:	d022      	beq.n	80026f8 <xQueueGiveFromISR+0x128>
 80026b2:	683b      	ldr	r3, [r7, #0]
 80026b4:	2201      	movs	r2, #1
 80026b6:	601a      	str	r2, [r3, #0]
 80026b8:	e01e      	b.n	80026f8 <xQueueGiveFromISR+0x128>
 80026ba:	f002 ffbd 	bl	8005638 <uxTaskGetNumberOfTasks>
 80026be:	62b8      	str	r0, [r7, #40]	; 0x28
 80026c0:	f997 302f 	ldrsb.w	r3, [r7, #47]	; 0x2f
 80026c4:	6aba      	ldr	r2, [r7, #40]	; 0x28
 80026c6:	429a      	cmp	r2, r3
 80026c8:	d916      	bls.n	80026f8 <xQueueGiveFromISR+0x128>
 80026ca:	f997 302f 	ldrsb.w	r3, [r7, #47]	; 0x2f
 80026ce:	2b7f      	cmp	r3, #127	; 0x7f
 80026d0:	d10a      	bne.n	80026e8 <xQueueGiveFromISR+0x118>
 80026d2:	f04f 0350 	mov.w	r3, #80	; 0x50
 80026d6:	f383 8811 	msr	BASEPRI, r3
 80026da:	f3bf 8f6f 	isb	sy
 80026de:	f3bf 8f4f 	dsb	sy
 80026e2:	613b      	str	r3, [r7, #16]
 80026e4:	bf00      	nop
 80026e6:	e7fe      	b.n	80026e6 <xQueueGiveFromISR+0x116>
 80026e8:	f897 302f 	ldrb.w	r3, [r7, #47]	; 0x2f
 80026ec:	3301      	adds	r3, #1
 80026ee:	b2db      	uxtb	r3, r3
 80026f0:	b25a      	sxtb	r2, r3
 80026f2:	6bbb      	ldr	r3, [r7, #56]	; 0x38
 80026f4:	f883 2045 	strb.w	r2, [r3, #69]	; 0x45
 80026f8:	2301      	movs	r3, #1
 80026fa:	63fb      	str	r3, [r7, #60]	; 0x3c
 80026fc:	e001      	b.n	8002702 <xQueueGiveFromISR+0x132>
 80026fe:	2300      	movs	r3, #0
 8002700:	63fb      	str	r3, [r7, #60]	; 0x3c
 8002702:	6b7b      	ldr	r3, [r7, #52]	; 0x34
 8002704:	60fb      	str	r3, [r7, #12]
 8002706:	68fb      	ldr	r3, [r7, #12]
 8002708:	f383 8811 	msr	BASEPRI, r3
 800270c:	bf00      	nop
 800270e:	6bfb      	ldr	r3, [r7, #60]	; 0x3c
 8002710:	4618      	mov	r0, r3
 8002712:	3740      	adds	r7, #64	; 0x40
 8002714:	46bd      	mov	sp, r7
 8002716:	bd80      	pop	{r7, pc}

08002718 <xQueueReceive>:
 8002718:	b580      	push	{r7, lr}
 800271a:	b08c      	sub	sp, #48	; 0x30
 800271c:	af00      	add	r7, sp, #0
 800271e:	60f8      	str	r0, [r7, #12]
 8002720:	60b9      	str	r1, [r7, #8]
 8002722:	607a      	str	r2, [r7, #4]
 8002724:	2300      	movs	r3, #0
 8002726:	62fb      	str	r3, [r7, #44]	; 0x2c
 8002728:	68fb      	ldr	r3, [r7, #12]
 800272a:	62bb      	str	r3, [r7, #40]	; 0x28
 800272c:	6abb      	ldr	r3, [r7, #40]	; 0x28
 800272e:	2b00      	cmp	r3, #0
 8002730:	d10a      	bne.n	8002748 <xQueueReceive+0x30>
 8002732:	f04f 0350 	mov.w	r3, #80	; 0x50
 8002736:	f383 8811 	msr	BASEPRI, r3
 800273a:	f3bf 8f6f 	isb	sy
 800273e:	f3bf 8f4f 	dsb	sy
 8002742:	623b      	str	r3, [r7, #32]
 8002744:	bf00      	nop
 8002746:	e7fe      	b.n	8002746 <xQueueReceive+0x2e>
 8002748:	68bb      	ldr	r3, [r7, #8]
 800274a:	2b00      	cmp	r3, #0
 800274c:	d103      	bne.n	8002756 <xQueueReceive+0x3e>
 800274e:	6abb      	ldr	r3, [r7, #40]	; 0x28
 8002750:	6c1b      	ldr	r3, [r3, #64]	; 0x40
 8002752:	2b00      	cmp	r3, #0
 8002754:	d101      	bne.n	800275a <xQueueReceive+0x42>
 8002756:	2301      	movs	r3, #1
 8002758:	e000      	b.n	800275c <xQueueReceive+0x44>
 800275a:	2300      	movs	r3, #0
 800275c:	2b00      	cmp	r3, #0
 800275e:	d10a      	bne.n	8002776 <xQueueReceive+0x5e>
 8002760:	f04f 0350 	mov.w	r3, #80	; 0x50
 8002764:	f383 8811 	msr	BASEPRI, r3
 8002768:	f3bf 8f6f 	isb	sy
 800276c:	f3bf 8f4f 	dsb	sy
 8002770:	61fb      	str	r3, [r7, #28]
 8002772:	bf00      	nop
 8002774:	e7fe      	b.n	8002774 <xQueueReceive+0x5c>
 8002776:	f003 fead 	bl	80064d4 <xTaskGetSchedulerState>
 800277a:	4603      	mov	r3, r0
 800277c:	2b00      	cmp	r3, #0
 800277e:	d102      	bne.n	8002786 <xQueueReceive+0x6e>
 8002780:	687b      	ldr	r3, [r7, #4]
 8002782:	2b00      	cmp	r3, #0
 8002784:	d101      	bne.n	800278a <xQueueReceive+0x72>
 8002786:	2301      	movs	r3, #1
 8002788:	e000      	b.n	800278c <xQueueReceive+0x74>
 800278a:	2300      	movs	r3, #0
 800278c:	2b00      	cmp	r3, #0
 800278e:	d10a      	bne.n	80027a6 <xQueueReceive+0x8e>
 8002790:	f04f 0350 	mov.w	r3, #80	; 0x50
 8002794:	f383 8811 	msr	BASEPRI, r3
 8002798:	f3bf 8f6f 	isb	sy
 800279c:	f3bf 8f4f 	dsb	sy
 80027a0:	61bb      	str	r3, [r7, #24]
 80027a2:	bf00      	nop
 80027a4:	e7fe      	b.n	80027a4 <xQueueReceive+0x8c>
 80027a6:	f7fe fb59 	bl	8000e5c <vPortEnterCritical>
 80027aa:	6abb      	ldr	r3, [r7, #40]	; 0x28
 80027ac:	6b9b      	ldr	r3, [r3, #56]	; 0x38
 80027ae:	627b      	str	r3, [r7, #36]	; 0x24
 80027b0:	6a7b      	ldr	r3, [r7, #36]	; 0x24
 80027b2:	2b00      	cmp	r3, #0
 80027b4:	d01f      	beq.n	80027f6 <xQueueReceive+0xde>
 80027b6:	68b9      	ldr	r1, [r7, #8]
 80027b8:	6ab8      	ldr	r0, [r7, #40]	; 0x28
 80027ba:	f000 fcab 	bl	8003114 <prvCopyDataFromQueue>
 80027be:	6a7b      	ldr	r3, [r7, #36]	; 0x24
 80027c0:	1e5a      	subs	r2, r3, #1
 80027c2:	6abb      	ldr	r3, [r7, #40]	; 0x28
 80027c4:	639a      	str	r2, [r3, #56]	; 0x38
 80027c6:	6abb      	ldr	r3, [r7, #40]	; 0x28
 80027c8:	691b      	ldr	r3, [r3, #16]
 80027ca:	2b00      	cmp	r3, #0
 80027cc:	d00f      	beq.n	80027ee <xQueueReceive+0xd6>
 80027ce:	6abb      	ldr	r3, [r7, #40]	; 0x28
 80027d0:	3310      	adds	r3, #16
 80027d2:	4618      	mov	r0, r3
 80027d4:	f003 fa4e 	bl	8005c74 <xTaskRemoveFromEventList>
 80027d8:	4603      	mov	r3, r0
 80027da:	2b00      	cmp	r3, #0
 80027dc:	d007      	beq.n	80027ee <xQueueReceive+0xd6>
 80027de:	4b3d      	ldr	r3, [pc, #244]	; (80028d4 <xQueueReceive+0x1bc>)
 80027e0:	f04f 5280 	mov.w	r2, #268435456	; 0x10000000
 80027e4:	601a      	str	r2, [r3, #0]
 80027e6:	f3bf 8f4f 	dsb	sy
 80027ea:	f3bf 8f6f 	isb	sy
 80027ee:	f7fe fb65 	bl	8000ebc <vPortExitCritical>
 80027f2:	2301      	movs	r3, #1
 80027f4:	e069      	b.n	80028ca <xQueueReceive+0x1b2>
 80027f6:	687b      	ldr	r3, [r7, #4]
 80027f8:	2b00      	cmp	r3, #0
 80027fa:	d103      	bne.n	8002804 <xQueueReceive+0xec>
 80027fc:	f7fe fb5e 	bl	8000ebc <vPortExitCritical>
 8002800:	2300      	movs	r3, #0
 8002802:	e062      	b.n	80028ca <xQueueReceive+0x1b2>
 8002804:	6afb      	ldr	r3, [r7, #44]	; 0x2c
 8002806:	2b00      	cmp	r3, #0
 8002808:	d106      	bne.n	8002818 <xQueueReceive+0x100>
 800280a:	f107 0310 	add.w	r3, r7, #16
 800280e:	4618      	mov	r0, r3
 8002810:	f003 fbf0 	bl	8005ff4 <vTaskInternalSetTimeOutState>
 8002814:	2301      	movs	r3, #1
 8002816:	62fb      	str	r3, [r7, #44]	; 0x2c
 8002818:	f7fe fb50 	bl	8000ebc <vPortExitCritical>
 800281c:	f002 fdd4 	bl	80053c8 <vTaskSuspendAll>
 8002820:	f7fe fb1c 	bl	8000e5c <vPortEnterCritical>
 8002824:	6abb      	ldr	r3, [r7, #40]	; 0x28
 8002826:	f893 3044 	ldrb.w	r3, [r3, #68]	; 0x44
 800282a:	b25b      	sxtb	r3, r3
 800282c:	f1b3 3fff 	cmp.w	r3, #4294967295	; 0xffffffff
 8002830:	d103      	bne.n	800283a <xQueueReceive+0x122>
 8002832:	6abb      	ldr	r3, [r7, #40]	; 0x28
 8002834:	2200      	movs	r2, #0
 8002836:	f883 2044 	strb.w	r2, [r3, #68]	; 0x44
 800283a:	6abb      	ldr	r3, [r7, #40]	; 0x28
 800283c:	f893 3045 	ldrb.w	r3, [r3, #69]	; 0x45
 8002840:	b25b      	sxtb	r3, r3
 8002842:	f1b3 3fff 	cmp.w	r3, #4294967295	; 0xffffffff
 8002846:	d103      	bne.n	8002850 <xQueueReceive+0x138>
 8002848:	6abb      	ldr	r3, [r7, #40]	; 0x28
 800284a:	2200      	movs	r2, #0
 800284c:	f883 2045 	strb.w	r2, [r3, #69]	; 0x45
 8002850:	f7fe fb34 	bl	8000ebc <vPortExitCritical>
 8002854:	1d3a      	adds	r2, r7, #4
 8002856:	f107 0310 	add.w	r3, r7, #16
 800285a:	4611      	mov	r1, r2
 800285c:	4618      	mov	r0, r3
 800285e:	f003 fbdf 	bl	8006020 <xTaskCheckForTimeOut>
 8002862:	4603      	mov	r3, r0
 8002864:	2b00      	cmp	r3, #0
 8002866:	d123      	bne.n	80028b0 <xQueueReceive+0x198>
 8002868:	6ab8      	ldr	r0, [r7, #40]	; 0x28
 800286a:	f000 fccb 	bl	8003204 <prvIsQueueEmpty>
 800286e:	4603      	mov	r3, r0
 8002870:	2b00      	cmp	r3, #0
 8002872:	d017      	beq.n	80028a4 <xQueueReceive+0x18c>
 8002874:	6abb      	ldr	r3, [r7, #40]	; 0x28
 8002876:	3324      	adds	r3, #36	; 0x24
 8002878:	687a      	ldr	r2, [r7, #4]
 800287a:	4611      	mov	r1, r2
 800287c:	4618      	mov	r0, r3
 800287e:	f003 f939 	bl	8005af4 <vTaskPlaceOnEventList>
 8002882:	6ab8      	ldr	r0, [r7, #40]	; 0x28
 8002884:	f000 fc6c 	bl	8003160 <prvUnlockQueue>
 8002888:	f002 fdac 	bl	80053e4 <xTaskResumeAll>
 800288c:	4603      	mov	r3, r0
 800288e:	2b00      	cmp	r3, #0
 8002890:	d189      	bne.n	80027a6 <xQueueReceive+0x8e>
 8002892:	4b10      	ldr	r3, [pc, #64]	; (80028d4 <xQueueReceive+0x1bc>)
 8002894:	f04f 5280 	mov.w	r2, #268435456	; 0x10000000
 8002898:	601a      	str	r2, [r3, #0]
 800289a:	f3bf 8f4f 	dsb	sy
 800289e:	f3bf 8f6f 	isb	sy
 80028a2:	e780      	b.n	80027a6 <xQueueReceive+0x8e>
 80028a4:	6ab8      	ldr	r0, [r7, #40]	; 0x28
 80028a6:	f000 fc5b 	bl	8003160 <prvUnlockQueue>
 80028aa:	f002 fd9b 	bl	80053e4 <xTaskResumeAll>
 80028ae:	e77a      	b.n	80027a6 <xQueueReceive+0x8e>
 80028b0:	6ab8      	ldr	r0, [r7, #40]	; 0x28
 80028b2:	f000 fc55 	bl	8003160 <prvUnlockQueue>
 80028b6:	f002 fd95 	bl	80053e4 <xTaskResumeAll>
 80028ba:	6ab8      	ldr	r0, [r7, #40]	; 0x28
 80028bc:	f000 fca2 	bl	8003204 <prvIsQueueEmpty>
 80028c0:	4603      	mov	r3, r0
 80028c2:	2b00      	cmp	r3, #0
 80028c4:	f43f af6f 	beq.w	80027a6 <xQueueReceive+0x8e>
 80028c8:	2300      	movs	r3, #0
 80028ca:	4618      	mov	r0, r3
 80028cc:	3730      	adds	r7, #48	; 0x30
 80028ce:	46bd      	mov	sp, r7
 80028d0:	bd80      	pop	{r7, pc}
 80028d2:	bf00      	nop
 80028d4:	e000ed04 	and	lr, r0, r4, lsl #26

080028d8 <xQueueSemaphoreTake>:
 80028d8:	b580      	push	{r7, lr}
 80028da:	b08c      	sub	sp, #48	; 0x30
 80028dc:	af00      	add	r7, sp, #0
 80028de:	6078      	str	r0, [r7, #4]
 80028e0:	6039      	str	r1, [r7, #0]
 80028e2:	2300      	movs	r3, #0
 80028e4:	62fb      	str	r3, [r7, #44]	; 0x2c
 80028e6:	687b      	ldr	r3, [r7, #4]
 80028e8:	627b      	str	r3, [r7, #36]	; 0x24
 80028ea:	2300      	movs	r3, #0
 80028ec:	62bb      	str	r3, [r7, #40]	; 0x28
 80028ee:	6a7b      	ldr	r3, [r7, #36]	; 0x24
 80028f0:	2b00      	cmp	r3, #0
 80028f2:	d10a      	bne.n	800290a <xQueueSemaphoreTake+0x32>
 80028f4:	f04f 0350 	mov.w	r3, #80	; 0x50
 80028f8:	f383 8811 	msr	BASEPRI, r3
 80028fc:	f3bf 8f6f 	isb	sy
 8002900:	f3bf 8f4f 	dsb	sy
 8002904:	61bb      	str	r3, [r7, #24]
 8002906:	bf00      	nop
 8002908:	e7fe      	b.n	8002908 <xQueueSemaphoreTake+0x30>
 800290a:	6a7b      	ldr	r3, [r7, #36]	; 0x24
 800290c:	6c1b      	ldr	r3, [r3, #64]	; 0x40
 800290e:	2b00      	cmp	r3, #0
 8002910:	d00a      	beq.n	8002928 <xQueueSemaphoreTake+0x50>
 8002912:	f04f 0350 	mov.w	r3, #80	; 0x50
 8002916:	f383 8811 	msr	BASEPRI, r3
 800291a:	f3bf 8f6f 	isb	sy
 800291e:	f3bf 8f4f 	dsb	sy
 8002922:	617b      	str	r3, [r7, #20]
 8002924:	bf00      	nop
 8002926:	e7fe      	b.n	8002926 <xQueueSemaphoreTake+0x4e>
 8002928:	f003 fdd4 	bl	80064d4 <xTaskGetSchedulerState>
 800292c:	4603      	mov	r3, r0
 800292e:	2b00      	cmp	r3, #0
 8002930:	d102      	bne.n	8002938 <xQueueSemaphoreTake+0x60>
 8002932:	683b      	ldr	r3, [r7, #0]
 8002934:	2b00      	cmp	r3, #0
 8002936:	d101      	bne.n	800293c <xQueueSemaphoreTake+0x64>
 8002938:	2301      	movs	r3, #1
 800293a:	e000      	b.n	800293e <xQueueSemaphoreTake+0x66>
 800293c:	2300      	movs	r3, #0
 800293e:	2b00      	cmp	r3, #0
 8002940:	d10a      	bne.n	8002958 <xQueueSemaphoreTake+0x80>
 8002942:	f04f 0350 	mov.w	r3, #80	; 0x50
 8002946:	f383 8811 	msr	BASEPRI, r3
 800294a:	f3bf 8f6f 	isb	sy
 800294e:	f3bf 8f4f 	dsb	sy
 8002952:	613b      	str	r3, [r7, #16]
 8002954:	bf00      	nop
 8002956:	e7fe      	b.n	8002956 <xQueueSemaphoreTake+0x7e>
 8002958:	f7fe fa80 	bl	8000e5c <vPortEnterCritical>
 800295c:	6a7b      	ldr	r3, [r7, #36]	; 0x24
 800295e:	6b9b      	ldr	r3, [r3, #56]	; 0x38
 8002960:	623b      	str	r3, [r7, #32]
 8002962:	6a3b      	ldr	r3, [r7, #32]
 8002964:	2b00      	cmp	r3, #0
 8002966:	d024      	beq.n	80029b2 <xQueueSemaphoreTake+0xda>
 8002968:	6a3b      	ldr	r3, [r7, #32]
 800296a:	1e5a      	subs	r2, r3, #1
 800296c:	6a7b      	ldr	r3, [r7, #36]	; 0x24
 800296e:	639a      	str	r2, [r3, #56]	; 0x38
 8002970:	6a7b      	ldr	r3, [r7, #36]	; 0x24
 8002972:	681b      	ldr	r3, [r3, #0]
 8002974:	2b00      	cmp	r3, #0
 8002976:	d104      	bne.n	8002982 <xQueueSemaphoreTake+0xaa>
 8002978:	f003 ffe2 	bl	8006940 <pvTaskIncrementMutexHeldCount>
 800297c:	4602      	mov	r2, r0
 800297e:	6a7b      	ldr	r3, [r7, #36]	; 0x24
 8002980:	609a      	str	r2, [r3, #8]
 8002982:	6a7b      	ldr	r3, [r7, #36]	; 0x24
 8002984:	691b      	ldr	r3, [r3, #16]
 8002986:	2b00      	cmp	r3, #0
 8002988:	d00f      	beq.n	80029aa <xQueueSemaphoreTake+0xd2>
 800298a:	6a7b      	ldr	r3, [r7, #36]	; 0x24
 800298c:	3310      	adds	r3, #16
 800298e:	4618      	mov	r0, r3
 8002990:	f003 f970 	bl	8005c74 <xTaskRemoveFromEventList>
 8002994:	4603      	mov	r3, r0
 8002996:	2b00      	cmp	r3, #0
 8002998:	d007      	beq.n	80029aa <xQueueSemaphoreTake+0xd2>
 800299a:	4b4d      	ldr	r3, [pc, #308]	; (8002ad0 <xQueueSemaphoreTake+0x1f8>)
 800299c:	f04f 5280 	mov.w	r2, #268435456	; 0x10000000
 80029a0:	601a      	str	r2, [r3, #0]
 80029a2:	f3bf 8f4f 	dsb	sy
 80029a6:	f3bf 8f6f 	isb	sy
 80029aa:	f7fe fa87 	bl	8000ebc <vPortExitCritical>
 80029ae:	2301      	movs	r3, #1
 80029b0:	e089      	b.n	8002ac6 <xQueueSemaphoreTake+0x1ee>
 80029b2:	683b      	ldr	r3, [r7, #0]
 80029b4:	2b00      	cmp	r3, #0
 80029b6:	d103      	bne.n	80029c0 <xQueueSemaphoreTake+0xe8>
 80029b8:	f7fe fa80 	bl	8000ebc <vPortExitCritical>
 80029bc:	2300      	movs	r3, #0
 80029be:	e082      	b.n	8002ac6 <xQueueSemaphoreTake+0x1ee>
 80029c0:	6afb      	ldr	r3, [r7, #44]	; 0x2c
 80029c2:	2b00      	cmp	r3, #0
 80029c4:	d106      	bne.n	80029d4 <xQueueSemaphoreTake+0xfc>
 80029c6:	f107 0308 	add.w	r3, r7, #8
 80029ca:	4618      	mov	r0, r3
 80029cc:	f003 fb12 	bl	8005ff4 <vTaskInternalSetTimeOutState>
 80029d0:	2301      	movs	r3, #1
 80029d2:	62fb      	str	r3, [r7, #44]	; 0x2c
 80029d4:	f7fe fa72 	bl	8000ebc <vPortExitCritical>
 80029d8:	f002 fcf6 	bl	80053c8 <vTaskSuspendAll>
 80029dc:	f7fe fa3e 	bl	8000e5c <vPortEnterCritical>
 80029e0:	6a7b      	ldr	r3, [r7, #36]	; 0x24
 80029e2:	f893 3044 	ldrb.w	r3, [r3, #68]	; 0x44
 80029e6:	b25b      	sxtb	r3, r3
 80029e8:	f1b3 3fff 	cmp.w	r3, #4294967295	; 0xffffffff
 80029ec:	d103      	bne.n	80029f6 <xQueueSemaphoreTake+0x11e>
 80029ee:	6a7b      	ldr	r3, [r7, #36]	; 0x24
 80029f0:	2200      	movs	r2, #0
 80029f2:	f883 2044 	strb.w	r2, [r3, #68]	; 0x44
 80029f6:	6a7b      	ldr	r3, [r7, #36]	; 0x24
 80029f8:	f893 3045 	ldrb.w	r3, [r3, #69]	; 0x45
 80029fc:	b25b      	sxtb	r3, r3
 80029fe:	f1b3 3fff 	cmp.w	r3, #4294967295	; 0xffffffff
 8002a02:	d103      	bne.n	8002a0c <xQueueSemaphoreTake+0x134>
 8002a04:	6a7b      	ldr	r3, [r7, #36]	; 0x24
 8002a06:	2200      	movs	r2, #0
 8002a08:	f883 2045 	strb.w	r2, [r3, #69]	; 0x45
 8002a0c:	f7fe fa56 	bl	8000ebc <vPortExitCritical>
 8002a10:	463a      	mov	r2, r7
 8002a12:	f107 0308 	add.w	r3, r7, #8
 8002a16:	4611      	mov	r1, r2
 8002a18:	4618      	mov	r0, r3
 8002a1a:	f003 fb01 	bl	8006020 <xTaskCheckForTimeOut>
 8002a1e:	4603      	mov	r3, r0
 8002a20:	2b00      	cmp	r3, #0
 8002a22:	d132      	bne.n	8002a8a <xQueueSemaphoreTake+0x1b2>
 8002a24:	6a78      	ldr	r0, [r7, #36]	; 0x24
 8002a26:	f000 fbed 	bl	8003204 <prvIsQueueEmpty>
 8002a2a:	4603      	mov	r3, r0
 8002a2c:	2b00      	cmp	r3, #0
 8002a2e:	d026      	beq.n	8002a7e <xQueueSemaphoreTake+0x1a6>
 8002a30:	6a7b      	ldr	r3, [r7, #36]	; 0x24
 8002a32:	681b      	ldr	r3, [r3, #0]
 8002a34:	2b00      	cmp	r3, #0
 8002a36:	d109      	bne.n	8002a4c <xQueueSemaphoreTake+0x174>
 8002a38:	f7fe fa10 	bl	8000e5c <vPortEnterCritical>
 8002a3c:	6a7b      	ldr	r3, [r7, #36]	; 0x24
 8002a3e:	689b      	ldr	r3, [r3, #8]
 8002a40:	4618      	mov	r0, r3
 8002a42:	f003 fd65 	bl	8006510 <xTaskPriorityInherit>
 8002a46:	62b8      	str	r0, [r7, #40]	; 0x28
 8002a48:	f7fe fa38 	bl	8000ebc <vPortExitCritical>
 8002a4c:	6a7b      	ldr	r3, [r7, #36]	; 0x24
 8002a4e:	3324      	adds	r3, #36	; 0x24
 8002a50:	683a      	ldr	r2, [r7, #0]
 8002a52:	4611      	mov	r1, r2
 8002a54:	4618      	mov	r0, r3
 8002a56:	f003 f84d 	bl	8005af4 <vTaskPlaceOnEventList>
 8002a5a:	6a78      	ldr	r0, [r7, #36]	; 0x24
 8002a5c:	f000 fb80 	bl	8003160 <prvUnlockQueue>
 8002a60:	f002 fcc0 	bl	80053e4 <xTaskResumeAll>
 8002a64:	4603      	mov	r3, r0
 8002a66:	2b00      	cmp	r3, #0
 8002a68:	f47f af76 	bne.w	8002958 <xQueueSemaphoreTake+0x80>
 8002a6c:	4b18      	ldr	r3, [pc, #96]	; (8002ad0 <xQueueSemaphoreTake+0x1f8>)
 8002a6e:	f04f 5280 	mov.w	r2, #268435456	; 0x10000000
 8002a72:	601a      	str	r2, [r3, #0]
 8002a74:	f3bf 8f4f 	dsb	sy
 8002a78:	f3bf 8f6f 	isb	sy
 8002a7c:	e76c      	b.n	8002958 <xQueueSemaphoreTake+0x80>
 8002a7e:	6a78      	ldr	r0, [r7, #36]	; 0x24
 8002a80:	f000 fb6e 	bl	8003160 <prvUnlockQueue>
 8002a84:	f002 fcae 	bl	80053e4 <xTaskResumeAll>
 8002a88:	e766      	b.n	8002958 <xQueueSemaphoreTake+0x80>
 8002a8a:	6a78      	ldr	r0, [r7, #36]	; 0x24
 8002a8c:	f000 fb68 	bl	8003160 <prvUnlockQueue>
 8002a90:	f002 fca8 	bl	80053e4 <xTaskResumeAll>
 8002a94:	6a78      	ldr	r0, [r7, #36]	; 0x24
 8002a96:	f000 fbb5 	bl	8003204 <prvIsQueueEmpty>
 8002a9a:	4603      	mov	r3, r0
 8002a9c:	2b00      	cmp	r3, #0
 8002a9e:	f43f af5b 	beq.w	8002958 <xQueueSemaphoreTake+0x80>
 8002aa2:	6abb      	ldr	r3, [r7, #40]	; 0x28
 8002aa4:	2b00      	cmp	r3, #0
 8002aa6:	d00d      	beq.n	8002ac4 <xQueueSemaphoreTake+0x1ec>
 8002aa8:	f7fe f9d8 	bl	8000e5c <vPortEnterCritical>
 8002aac:	6a78      	ldr	r0, [r7, #36]	; 0x24
 8002aae:	f000 faaf 	bl	8003010 <prvGetHighestPriorityOfWaitToReceiveList>
 8002ab2:	61f8      	str	r0, [r7, #28]
 8002ab4:	6a7b      	ldr	r3, [r7, #36]	; 0x24
 8002ab6:	689b      	ldr	r3, [r3, #8]
 8002ab8:	69f9      	ldr	r1, [r7, #28]
 8002aba:	4618      	mov	r0, r3
 8002abc:	f003 fe6e 	bl	800679c <vTaskPriorityDisinheritAfterTimeout>
 8002ac0:	f7fe f9fc 	bl	8000ebc <vPortExitCritical>
 8002ac4:	2300      	movs	r3, #0
 8002ac6:	4618      	mov	r0, r3
 8002ac8:	3730      	adds	r7, #48	; 0x30
 8002aca:	46bd      	mov	sp, r7
 8002acc:	bd80      	pop	{r7, pc}
 8002ace:	bf00      	nop
 8002ad0:	e000ed04 	and	lr, r0, r4, lsl #26

08002ad4 <xQueuePeek>:
 8002ad4:	b580      	push	{r7, lr}
 8002ad6:	b08e      	sub	sp, #56	; 0x38
 8002ad8:	af00      	add	r7, sp, #0
 8002ada:	60f8      	str	r0, [r7, #12]
 8002adc:	60b9      	str	r1, [r7, #8]
 8002ade:	607a      	str	r2, [r7, #4]
 8002ae0:	2300      	movs	r3, #0
 8002ae2:	637b      	str	r3, [r7, #52]	; 0x34
 8002ae4:	68fb      	ldr	r3, [r7, #12]
 8002ae6:	633b      	str	r3, [r7, #48]	; 0x30
 8002ae8:	6b3b      	ldr	r3, [r7, #48]	; 0x30
 8002aea:	2b00      	cmp	r3, #0
 8002aec:	d10a      	bne.n	8002b04 <xQueuePeek+0x30>
 8002aee:	f04f 0350 	mov.w	r3, #80	; 0x50
 8002af2:	f383 8811 	msr	BASEPRI, r3
 8002af6:	f3bf 8f6f 	isb	sy
 8002afa:	f3bf 8f4f 	dsb	sy
 8002afe:	627b      	str	r3, [r7, #36]	; 0x24
 8002b00:	bf00      	nop
 8002b02:	e7fe      	b.n	8002b02 <xQueuePeek+0x2e>
 8002b04:	68bb      	ldr	r3, [r7, #8]
 8002b06:	2b00      	cmp	r3, #0
 8002b08:	d103      	bne.n	8002b12 <xQueuePeek+0x3e>
 8002b0a:	6b3b      	ldr	r3, [r7, #48]	; 0x30
 8002b0c:	6c1b      	ldr	r3, [r3, #64]	; 0x40
 8002b0e:	2b00      	cmp	r3, #0
 8002b10:	d101      	bne.n	8002b16 <xQueuePeek+0x42>
 8002b12:	2301      	movs	r3, #1
 8002b14:	e000      	b.n	8002b18 <xQueuePeek+0x44>
 8002b16:	2300      	movs	r3, #0
 8002b18:	2b00      	cmp	r3, #0
 8002b1a:	d10a      	bne.n	8002b32 <xQueuePeek+0x5e>
 8002b1c:	f04f 0350 	mov.w	r3, #80	; 0x50
 8002b20:	f383 8811 	msr	BASEPRI, r3
 8002b24:	f3bf 8f6f 	isb	sy
 8002b28:	f3bf 8f4f 	dsb	sy
 8002b2c:	623b      	str	r3, [r7, #32]
 8002b2e:	bf00      	nop
 8002b30:	e7fe      	b.n	8002b30 <xQueuePeek+0x5c>
 8002b32:	f003 fccf 	bl	80064d4 <xTaskGetSchedulerState>
 8002b36:	4603      	mov	r3, r0
 8002b38:	2b00      	cmp	r3, #0
 8002b3a:	d102      	bne.n	8002b42 <xQueuePeek+0x6e>
 8002b3c:	687b      	ldr	r3, [r7, #4]
 8002b3e:	2b00      	cmp	r3, #0
 8002b40:	d101      	bne.n	8002b46 <xQueuePeek+0x72>
 8002b42:	2301      	movs	r3, #1
 8002b44:	e000      	b.n	8002b48 <xQueuePeek+0x74>
 8002b46:	2300      	movs	r3, #0
 8002b48:	2b00      	cmp	r3, #0
 8002b4a:	d10a      	bne.n	8002b62 <xQueuePeek+0x8e>
 8002b4c:	f04f 0350 	mov.w	r3, #80	; 0x50
 8002b50:	f383 8811 	msr	BASEPRI, r3
 8002b54:	f3bf 8f6f 	isb	sy
 8002b58:	f3bf 8f4f 	dsb	sy
 8002b5c:	61fb      	str	r3, [r7, #28]
 8002b5e:	bf00      	nop
 8002b60:	e7fe      	b.n	8002b60 <xQueuePeek+0x8c>
 8002b62:	f7fe f97b 	bl	8000e5c <vPortEnterCritical>
 8002b66:	6b3b      	ldr	r3, [r7, #48]	; 0x30
 8002b68:	6b9b      	ldr	r3, [r3, #56]	; 0x38
 8002b6a:	62fb      	str	r3, [r7, #44]	; 0x2c
 8002b6c:	6afb      	ldr	r3, [r7, #44]	; 0x2c
 8002b6e:	2b00      	cmp	r3, #0
 8002b70:	d021      	beq.n	8002bb6 <xQueuePeek+0xe2>
 8002b72:	6b3b      	ldr	r3, [r7, #48]	; 0x30
 8002b74:	68db      	ldr	r3, [r3, #12]
 8002b76:	62bb      	str	r3, [r7, #40]	; 0x28
 8002b78:	68b9      	ldr	r1, [r7, #8]
 8002b7a:	6b38      	ldr	r0, [r7, #48]	; 0x30
 8002b7c:	f000 faca 	bl	8003114 <prvCopyDataFromQueue>
 8002b80:	6b3b      	ldr	r3, [r7, #48]	; 0x30
 8002b82:	6aba      	ldr	r2, [r7, #40]	; 0x28
 8002b84:	60da      	str	r2, [r3, #12]
 8002b86:	6b3b      	ldr	r3, [r7, #48]	; 0x30
 8002b88:	6a5b      	ldr	r3, [r3, #36]	; 0x24
 8002b8a:	2b00      	cmp	r3, #0
 8002b8c:	d00f      	beq.n	8002bae <xQueuePeek+0xda>
 8002b8e:	6b3b      	ldr	r3, [r7, #48]	; 0x30
 8002b90:	3324      	adds	r3, #36	; 0x24
 8002b92:	4618      	mov	r0, r3
 8002b94:	f003 f86e 	bl	8005c74 <xTaskRemoveFromEventList>
 8002b98:	4603      	mov	r3, r0
 8002b9a:	2b00      	cmp	r3, #0
 8002b9c:	d007      	beq.n	8002bae <xQueuePeek+0xda>
 8002b9e:	4b3d      	ldr	r3, [pc, #244]	; (8002c94 <xQueuePeek+0x1c0>)
 8002ba0:	f04f 5280 	mov.w	r2, #268435456	; 0x10000000
 8002ba4:	601a      	str	r2, [r3, #0]
 8002ba6:	f3bf 8f4f 	dsb	sy
 8002baa:	f3bf 8f6f 	isb	sy
 8002bae:	f7fe f985 	bl	8000ebc <vPortExitCritical>
 8002bb2:	2301      	movs	r3, #1
 8002bb4:	e069      	b.n	8002c8a <xQueuePeek+0x1b6>
 8002bb6:	687b      	ldr	r3, [r7, #4]
 8002bb8:	2b00      	cmp	r3, #0
 8002bba:	d103      	bne.n	8002bc4 <xQueuePeek+0xf0>
 8002bbc:	f7fe f97e 	bl	8000ebc <vPortExitCritical>
 8002bc0:	2300      	movs	r3, #0
 8002bc2:	e062      	b.n	8002c8a <xQueuePeek+0x1b6>
 8002bc4:	6b7b      	ldr	r3, [r7, #52]	; 0x34
 8002bc6:	2b00      	cmp	r3, #0
 8002bc8:	d106      	bne.n	8002bd8 <xQueuePeek+0x104>
 8002bca:	f107 0314 	add.w	r3, r7, #20
 8002bce:	4618      	mov	r0, r3
 8002bd0:	f003 fa10 	bl	8005ff4 <vTaskInternalSetTimeOutState>
 8002bd4:	2301      	movs	r3, #1
 8002bd6:	637b      	str	r3, [r7, #52]	; 0x34
 8002bd8:	f7fe f970 	bl	8000ebc <vPortExitCritical>
 8002bdc:	f002 fbf4 	bl	80053c8 <vTaskSuspendAll>
 8002be0:	f7fe f93c 	bl	8000e5c <vPortEnterCritical>
 8002be4:	6b3b      	ldr	r3, [r7, #48]	; 0x30
 8002be6:	f893 3044 	ldrb.w	r3, [r3, #68]	; 0x44
 8002bea:	b25b      	sxtb	r3, r3
 8002bec:	f1b3 3fff 	cmp.w	r3, #4294967295	; 0xffffffff
 8002bf0:	d103      	bne.n	8002bfa <xQueuePeek+0x126>
 8002bf2:	6b3b      	ldr	r3, [r7, #48]	; 0x30
 8002bf4:	2200      	movs	r2, #0
 8002bf6:	f883 2044 	strb.w	r2, [r3, #68]	; 0x44
 8002bfa:	6b3b      	ldr	r3, [r7, #48]	; 0x30
 8002bfc:	f893 3045 	ldrb.w	r3, [r3, #69]	; 0x45
 8002c00:	b25b      	sxtb	r3, r3
 8002c02:	f1b3 3fff 	cmp.w	r3, #4294967295	; 0xffffffff
 8002c06:	d103      	bne.n	8002c10 <xQueuePeek+0x13c>
 8002c08:	6b3b      	ldr	r3, [r7, #48]	; 0x30
 8002c0a:	2200      	movs	r2, #0
 8002c0c:	f883 2045 	strb.w	r2, [r3, #69]	; 0x45
 8002c10:	f7fe f954 	bl	8000ebc <vPortExitCritical>
 8002c14:	1d3a      	adds	r2, r7, #4
 8002c16:	f107 0314 	add.w	r3, r7, #20
 8002c1a:	4611      	mov	r1, r2
 8002c1c:	4618      	mov	r0, r3
 8002c1e:	f003 f9ff 	bl	8006020 <xTaskCheckForTimeOut>
 8002c22:	4603      	mov	r3, r0
 8002c24:	2b00      	cmp	r3, #0
 8002c26:	d123      	bne.n	8002c70 <xQueuePeek+0x19c>
 8002c28:	6b38      	ldr	r0, [r7, #48]	; 0x30
 8002c2a:	f000 faeb 	bl	8003204 <prvIsQueueEmpty>
 8002c2e:	4603      	mov	r3, r0
 8002c30:	2b00      	cmp	r3, #0
 8002c32:	d017      	beq.n	8002c64 <xQueuePeek+0x190>
 8002c34:	6b3b      	ldr	r3, [r7, #48]	; 0x30
 8002c36:	3324      	adds	r3, #36	; 0x24
 8002c38:	687a      	ldr	r2, [r7, #4]
 8002c3a:	4611      	mov	r1, r2
 8002c3c:	4618      	mov	r0, r3
 8002c3e:	f002 ff59 	bl	8005af4 <vTaskPlaceOnEventList>
 8002c42:	6b38      	ldr	r0, [r7, #48]	; 0x30
 8002c44:	f000 fa8c 	bl	8003160 <prvUnlockQueue>
 8002c48:	f002 fbcc 	bl	80053e4 <xTaskResumeAll>
 8002c4c:	4603      	mov	r3, r0
 8002c4e:	2b00      	cmp	r3, #0
 8002c50:	d187      	bne.n	8002b62 <xQueuePeek+0x8e>
 8002c52:	4b10      	ldr	r3, [pc, #64]	; (8002c94 <xQueuePeek+0x1c0>)
 8002c54:	f04f 5280 	mov.w	r2, #268435456	; 0x10000000
 8002c58:	601a      	str	r2, [r3, #0]
 8002c5a:	f3bf 8f4f 	dsb	sy
 8002c5e:	f3bf 8f6f 	isb	sy
 8002c62:	e77e      	b.n	8002b62 <xQueuePeek+0x8e>
 8002c64:	6b38      	ldr	r0, [r7, #48]	; 0x30
 8002c66:	f000 fa7b 	bl	8003160 <prvUnlockQueue>
 8002c6a:	f002 fbbb 	bl	80053e4 <xTaskResumeAll>
 8002c6e:	e778      	b.n	8002b62 <xQueuePeek+0x8e>
 8002c70:	6b38      	ldr	r0, [r7, #48]	; 0x30
 8002c72:	f000 fa75 	bl	8003160 <prvUnlockQueue>
 8002c76:	f002 fbb5 	bl	80053e4 <xTaskResumeAll>
 8002c7a:	6b38      	ldr	r0, [r7, #48]	; 0x30
 8002c7c:	f000 fac2 	bl	8003204 <prvIsQueueEmpty>
 8002c80:	4603      	mov	r3, r0
 8002c82:	2b00      	cmp	r3, #0
 8002c84:	f43f af6d 	beq.w	8002b62 <xQueuePeek+0x8e>
 8002c88:	2300      	movs	r3, #0
 8002c8a:	4618      	mov	r0, r3
 8002c8c:	3738      	adds	r7, #56	; 0x38
 8002c8e:	46bd      	mov	sp, r7
 8002c90:	bd80      	pop	{r7, pc}
 8002c92:	bf00      	nop
 8002c94:	e000ed04 	and	lr, r0, r4, lsl #26

08002c98 <xQueueReceiveFromISR>:
 8002c98:	b580      	push	{r7, lr}
 8002c9a:	b090      	sub	sp, #64	; 0x40
 8002c9c:	af00      	add	r7, sp, #0
 8002c9e:	60f8      	str	r0, [r7, #12]
 8002ca0:	60b9      	str	r1, [r7, #8]
 8002ca2:	607a      	str	r2, [r7, #4]
 8002ca4:	68fb      	ldr	r3, [r7, #12]
 8002ca6:	63bb      	str	r3, [r7, #56]	; 0x38
 8002ca8:	6bbb      	ldr	r3, [r7, #56]	; 0x38
 8002caa:	2b00      	cmp	r3, #0
 8002cac:	d10a      	bne.n	8002cc4 <xQueueReceiveFromISR+0x2c>
 8002cae:	f04f 0350 	mov.w	r3, #80	; 0x50
 8002cb2:	f383 8811 	msr	BASEPRI, r3
 8002cb6:	f3bf 8f6f 	isb	sy
 8002cba:	f3bf 8f4f 	dsb	sy
 8002cbe:	627b      	str	r3, [r7, #36]	; 0x24
 8002cc0:	bf00      	nop
 8002cc2:	e7fe      	b.n	8002cc2 <xQueueReceiveFromISR+0x2a>
 8002cc4:	68bb      	ldr	r3, [r7, #8]
 8002cc6:	2b00      	cmp	r3, #0
 8002cc8:	d103      	bne.n	8002cd2 <xQueueReceiveFromISR+0x3a>
 8002cca:	6bbb      	ldr	r3, [r7, #56]	; 0x38
 8002ccc:	6c1b      	ldr	r3, [r3, #64]	; 0x40
 8002cce:	2b00      	cmp	r3, #0
 8002cd0:	d101      	bne.n	8002cd6 <xQueueReceiveFromISR+0x3e>
 8002cd2:	2301      	movs	r3, #1
 8002cd4:	e000      	b.n	8002cd8 <xQueueReceiveFromISR+0x40>
 8002cd6:	2300      	movs	r3, #0
 8002cd8:	2b00      	cmp	r3, #0
 8002cda:	d10a      	bne.n	8002cf2 <xQueueReceiveFromISR+0x5a>
 8002cdc:	f04f 0350 	mov.w	r3, #80	; 0x50
 8002ce0:	f383 8811 	msr	BASEPRI, r3
 8002ce4:	f3bf 8f6f 	isb	sy
 8002ce8:	f3bf 8f4f 	dsb	sy
 8002cec:	623b      	str	r3, [r7, #32]
 8002cee:	bf00      	nop
 8002cf0:	e7fe      	b.n	8002cf0 <xQueueReceiveFromISR+0x58>
 8002cf2:	f7fe f988 	bl	8001006 <vPortValidateInterruptPriority>
 8002cf6:	f3ef 8211 	mrs	r2, BASEPRI
 8002cfa:	f04f 0350 	mov.w	r3, #80	; 0x50
 8002cfe:	f383 8811 	msr	BASEPRI, r3
 8002d02:	f3bf 8f6f 	isb	sy
 8002d06:	f3bf 8f4f 	dsb	sy
 8002d0a:	61fa      	str	r2, [r7, #28]
 8002d0c:	61bb      	str	r3, [r7, #24]
 8002d0e:	69fb      	ldr	r3, [r7, #28]
 8002d10:	637b      	str	r3, [r7, #52]	; 0x34
 8002d12:	6bbb      	ldr	r3, [r7, #56]	; 0x38
 8002d14:	6b9b      	ldr	r3, [r3, #56]	; 0x38
 8002d16:	633b      	str	r3, [r7, #48]	; 0x30
 8002d18:	6b3b      	ldr	r3, [r7, #48]	; 0x30
 8002d1a:	2b00      	cmp	r3, #0
 8002d1c:	d046      	beq.n	8002dac <xQueueReceiveFromISR+0x114>
 8002d1e:	6bbb      	ldr	r3, [r7, #56]	; 0x38
 8002d20:	f893 3044 	ldrb.w	r3, [r3, #68]	; 0x44
 8002d24:	f887 302f 	strb.w	r3, [r7, #47]	; 0x2f
 8002d28:	68b9      	ldr	r1, [r7, #8]
 8002d2a:	6bb8      	ldr	r0, [r7, #56]	; 0x38
 8002d2c:	f000 f9f2 	bl	8003114 <prvCopyDataFromQueue>
 8002d30:	6b3b      	ldr	r3, [r7, #48]	; 0x30
 8002d32:	1e5a      	subs	r2, r3, #1
 8002d34:	6bbb      	ldr	r3, [r7, #56]	; 0x38
 8002d36:	639a      	str	r2, [r3, #56]	; 0x38
 8002d38:	f997 302f 	ldrsb.w	r3, [r7, #47]	; 0x2f
 8002d3c:	f1b3 3fff 	cmp.w	r3, #4294967295	; 0xffffffff
 8002d40:	d112      	bne.n	8002d68 <xQueueReceiveFromISR+0xd0>
 8002d42:	6bbb      	ldr	r3, [r7, #56]	; 0x38
 8002d44:	691b      	ldr	r3, [r3, #16]
 8002d46:	2b00      	cmp	r3, #0
 8002d48:	d02d      	beq.n	8002da6 <xQueueReceiveFromISR+0x10e>
 8002d4a:	6bbb      	ldr	r3, [r7, #56]	; 0x38
 8002d4c:	3310      	adds	r3, #16
 8002d4e:	4618      	mov	r0, r3
 8002d50:	f002 ff90 	bl	8005c74 <xTaskRemoveFromEventList>
 8002d54:	4603      	mov	r3, r0
 8002d56:	2b00      	cmp	r3, #0
 8002d58:	d025      	beq.n	8002da6 <xQueueReceiveFromISR+0x10e>
 8002d5a:	687b      	ldr	r3, [r7, #4]
 8002d5c:	2b00      	cmp	r3, #0
 8002d5e:	d022      	beq.n	8002da6 <xQueueReceiveFromISR+0x10e>
 8002d60:	687b      	ldr	r3, [r7, #4]
 8002d62:	2201      	movs	r2, #1
 8002d64:	601a      	str	r2, [r3, #0]
 8002d66:	e01e      	b.n	8002da6 <xQueueReceiveFromISR+0x10e>
 8002d68:	f002 fc66 	bl	8005638 <uxTaskGetNumberOfTasks>
 8002d6c:	62b8      	str	r0, [r7, #40]	; 0x28
 8002d6e:	f997 302f 	ldrsb.w	r3, [r7, #47]	; 0x2f
 8002d72:	6aba      	ldr	r2, [r7, #40]	; 0x28
 8002d74:	429a      	cmp	r2, r3
 8002d76:	d916      	bls.n	8002da6 <xQueueReceiveFromISR+0x10e>
 8002d78:	f997 302f 	ldrsb.w	r3, [r7, #47]	; 0x2f
 8002d7c:	2b7f      	cmp	r3, #127	; 0x7f
 8002d7e:	d10a      	bne.n	8002d96 <xQueueReceiveFromISR+0xfe>
 8002d80:	f04f 0350 	mov.w	r3, #80	; 0x50
 8002d84:	f383 8811 	msr	BASEPRI, r3
 8002d88:	f3bf 8f6f 	isb	sy
 8002d8c:	f3bf 8f4f 	dsb	sy
 8002d90:	617b      	str	r3, [r7, #20]
 8002d92:	bf00      	nop
 8002d94:	e7fe      	b.n	8002d94 <xQueueReceiveFromISR+0xfc>
 8002d96:	f897 302f 	ldrb.w	r3, [r7, #47]	; 0x2f
 8002d9a:	3301      	adds	r3, #1
 8002d9c:	b2db      	uxtb	r3, r3
 8002d9e:	b25a      	sxtb	r2, r3
 8002da0:	6bbb      	ldr	r3, [r7, #56]	; 0x38
 8002da2:	f883 2044 	strb.w	r2, [r3, #68]	; 0x44
 8002da6:	2301      	movs	r3, #1
 8002da8:	63fb      	str	r3, [r7, #60]	; 0x3c
 8002daa:	e001      	b.n	8002db0 <xQueueReceiveFromISR+0x118>
 8002dac:	2300      	movs	r3, #0
 8002dae:	63fb      	str	r3, [r7, #60]	; 0x3c
 8002db0:	6b7b      	ldr	r3, [r7, #52]	; 0x34
 8002db2:	613b      	str	r3, [r7, #16]
 8002db4:	693b      	ldr	r3, [r7, #16]
 8002db6:	f383 8811 	msr	BASEPRI, r3
 8002dba:	bf00      	nop
 8002dbc:	6bfb      	ldr	r3, [r7, #60]	; 0x3c
 8002dbe:	4618      	mov	r0, r3
 8002dc0:	3740      	adds	r7, #64	; 0x40
 8002dc2:	46bd      	mov	sp, r7
 8002dc4:	bd80      	pop	{r7, pc}

08002dc6 <xQueuePeekFromISR>:
 8002dc6:	b580      	push	{r7, lr}
 8002dc8:	b08c      	sub	sp, #48	; 0x30
 8002dca:	af00      	add	r7, sp, #0
 8002dcc:	6078      	str	r0, [r7, #4]
 8002dce:	6039      	str	r1, [r7, #0]
 8002dd0:	687b      	ldr	r3, [r7, #4]
 8002dd2:	62bb      	str	r3, [r7, #40]	; 0x28
 8002dd4:	6abb      	ldr	r3, [r7, #40]	; 0x28
 8002dd6:	2b00      	cmp	r3, #0
 8002dd8:	d10a      	bne.n	8002df0 <xQueuePeekFromISR+0x2a>
 8002dda:	f04f 0350 	mov.w	r3, #80	; 0x50
 8002dde:	f383 8811 	msr	BASEPRI, r3
 8002de2:	f3bf 8f6f 	isb	sy
 8002de6:	f3bf 8f4f 	dsb	sy
 8002dea:	61fb      	str	r3, [r7, #28]
 8002dec:	bf00      	nop
 8002dee:	e7fe      	b.n	8002dee <xQueuePeekFromISR+0x28>
 8002df0:	683b      	ldr	r3, [r7, #0]
 8002df2:	2b00      	cmp	r3, #0
 8002df4:	d103      	bne.n	8002dfe <xQueuePeekFromISR+0x38>
 8002df6:	6abb      	ldr	r3, [r7, #40]	; 0x28
 8002df8:	6c1b      	ldr	r3, [r3, #64]	; 0x40
 8002dfa:	2b00      	cmp	r3, #0
 8002dfc:	d101      	bne.n	8002e02 <xQueuePeekFromISR+0x3c>
 8002dfe:	2301      	movs	r3, #1
 8002e00:	e000      	b.n	8002e04 <xQueuePeekFromISR+0x3e>
 8002e02:	2300      	movs	r3, #0
 8002e04:	2b00      	cmp	r3, #0
 8002e06:	d10a      	bne.n	8002e1e <xQueuePeekFromISR+0x58>
 8002e08:	f04f 0350 	mov.w	r3, #80	; 0x50
 8002e0c:	f383 8811 	msr	BASEPRI, r3
 8002e10:	f3bf 8f6f 	isb	sy
 8002e14:	f3bf 8f4f 	dsb	sy
 8002e18:	61bb      	str	r3, [r7, #24]
 8002e1a:	bf00      	nop
 8002e1c:	e7fe      	b.n	8002e1c <xQueuePeekFromISR+0x56>
 8002e1e:	6abb      	ldr	r3, [r7, #40]	; 0x28
 8002e20:	6c1b      	ldr	r3, [r3, #64]	; 0x40
 8002e22:	2b00      	cmp	r3, #0
 8002e24:	d10a      	bne.n	8002e3c <xQueuePeekFromISR+0x76>
 8002e26:	f04f 0350 	mov.w	r3, #80	; 0x50
 8002e2a:	f383 8811 	msr	BASEPRI, r3
 8002e2e:	f3bf 8f6f 	isb	sy
 8002e32:	f3bf 8f4f 	dsb	sy
 8002e36:	617b      	str	r3, [r7, #20]
 8002e38:	bf00      	nop
 8002e3a:	e7fe      	b.n	8002e3a <xQueuePeekFromISR+0x74>
 8002e3c:	f7fe f8e3 	bl	8001006 <vPortValidateInterruptPriority>
 8002e40:	f3ef 8211 	mrs	r2, BASEPRI
 8002e44:	f04f 0350 	mov.w	r3, #80	; 0x50
 8002e48:	f383 8811 	msr	BASEPRI, r3
 8002e4c:	f3bf 8f6f 	isb	sy
 8002e50:	f3bf 8f4f 	dsb	sy
 8002e54:	613a      	str	r2, [r7, #16]
 8002e56:	60fb      	str	r3, [r7, #12]
 8002e58:	693b      	ldr	r3, [r7, #16]
 8002e5a:	627b      	str	r3, [r7, #36]	; 0x24
 8002e5c:	6abb      	ldr	r3, [r7, #40]	; 0x28
 8002e5e:	6b9b      	ldr	r3, [r3, #56]	; 0x38
 8002e60:	2b00      	cmp	r3, #0
 8002e62:	d00c      	beq.n	8002e7e <xQueuePeekFromISR+0xb8>
 8002e64:	6abb      	ldr	r3, [r7, #40]	; 0x28
 8002e66:	68db      	ldr	r3, [r3, #12]
 8002e68:	623b      	str	r3, [r7, #32]
 8002e6a:	6839      	ldr	r1, [r7, #0]
 8002e6c:	6ab8      	ldr	r0, [r7, #40]	; 0x28
 8002e6e:	f000 f951 	bl	8003114 <prvCopyDataFromQueue>
 8002e72:	6abb      	ldr	r3, [r7, #40]	; 0x28
 8002e74:	6a3a      	ldr	r2, [r7, #32]
 8002e76:	60da      	str	r2, [r3, #12]
 8002e78:	2301      	movs	r3, #1
 8002e7a:	62fb      	str	r3, [r7, #44]	; 0x2c
 8002e7c:	e001      	b.n	8002e82 <xQueuePeekFromISR+0xbc>
 8002e7e:	2300      	movs	r3, #0
 8002e80:	62fb      	str	r3, [r7, #44]	; 0x2c
 8002e82:	6a7b      	ldr	r3, [r7, #36]	; 0x24
 8002e84:	60bb      	str	r3, [r7, #8]
 8002e86:	68bb      	ldr	r3, [r7, #8]
 8002e88:	f383 8811 	msr	BASEPRI, r3
 8002e8c:	bf00      	nop
 8002e8e:	6afb      	ldr	r3, [r7, #44]	; 0x2c
 8002e90:	4618      	mov	r0, r3
 8002e92:	3730      	adds	r7, #48	; 0x30
 8002e94:	46bd      	mov	sp, r7
 8002e96:	bd80      	pop	{r7, pc}

08002e98 <uxQueueMessagesWaiting>:
 8002e98:	b580      	push	{r7, lr}
 8002e9a:	b084      	sub	sp, #16
 8002e9c:	af00      	add	r7, sp, #0
 8002e9e:	6078      	str	r0, [r7, #4]
 8002ea0:	687b      	ldr	r3, [r7, #4]
 8002ea2:	2b00      	cmp	r3, #0
 8002ea4:	d10a      	bne.n	8002ebc <uxQueueMessagesWaiting+0x24>
 8002ea6:	f04f 0350 	mov.w	r3, #80	; 0x50
 8002eaa:	f383 8811 	msr	BASEPRI, r3
 8002eae:	f3bf 8f6f 	isb	sy
 8002eb2:	f3bf 8f4f 	dsb	sy
 8002eb6:	60bb      	str	r3, [r7, #8]
 8002eb8:	bf00      	nop
 8002eba:	e7fe      	b.n	8002eba <uxQueueMessagesWaiting+0x22>
 8002ebc:	f7fd ffce 	bl	8000e5c <vPortEnterCritical>
 8002ec0:	687b      	ldr	r3, [r7, #4]
 8002ec2:	6b9b      	ldr	r3, [r3, #56]	; 0x38
 8002ec4:	60fb      	str	r3, [r7, #12]
 8002ec6:	f7fd fff9 	bl	8000ebc <vPortExitCritical>
 8002eca:	68fb      	ldr	r3, [r7, #12]
 8002ecc:	4618      	mov	r0, r3
 8002ece:	3710      	adds	r7, #16
 8002ed0:	46bd      	mov	sp, r7
 8002ed2:	bd80      	pop	{r7, pc}

08002ed4 <uxQueueSpacesAvailable>:
 8002ed4:	b580      	push	{r7, lr}
 8002ed6:	b086      	sub	sp, #24
 8002ed8:	af00      	add	r7, sp, #0
 8002eda:	6078      	str	r0, [r7, #4]
 8002edc:	687b      	ldr	r3, [r7, #4]
 8002ede:	617b      	str	r3, [r7, #20]
 8002ee0:	697b      	ldr	r3, [r7, #20]
 8002ee2:	2b00      	cmp	r3, #0
 8002ee4:	d10a      	bne.n	8002efc <uxQueueSpacesAvailable+0x28>
 8002ee6:	f04f 0350 	mov.w	r3, #80	; 0x50
 8002eea:	f383 8811 	msr	BASEPRI, r3
 8002eee:	f3bf 8f6f 	isb	sy
 8002ef2:	f3bf 8f4f 	dsb	sy
 8002ef6:	60fb      	str	r3, [r7, #12]
 8002ef8:	bf00      	nop
 8002efa:	e7fe      	b.n	8002efa <uxQueueSpacesAvailable+0x26>
 8002efc:	f7fd ffae 	bl	8000e5c <vPortEnterCritical>
 8002f00:	697b      	ldr	r3, [r7, #20]
 8002f02:	6bda      	ldr	r2, [r3, #60]	; 0x3c
 8002f04:	697b      	ldr	r3, [r7, #20]
 8002f06:	6b9b      	ldr	r3, [r3, #56]	; 0x38
 8002f08:	1ad3      	subs	r3, r2, r3
 8002f0a:	613b      	str	r3, [r7, #16]
 8002f0c:	f7fd ffd6 	bl	8000ebc <vPortExitCritical>
 8002f10:	693b      	ldr	r3, [r7, #16]
 8002f12:	4618      	mov	r0, r3
 8002f14:	3718      	adds	r7, #24
 8002f16:	46bd      	mov	sp, r7
 8002f18:	bd80      	pop	{r7, pc}

08002f1a <uxQueueMessagesWaitingFromISR>:
 8002f1a:	b480      	push	{r7}
 8002f1c:	b087      	sub	sp, #28
 8002f1e:	af00      	add	r7, sp, #0
 8002f20:	6078      	str	r0, [r7, #4]
 8002f22:	687b      	ldr	r3, [r7, #4]
 8002f24:	617b      	str	r3, [r7, #20]
 8002f26:	697b      	ldr	r3, [r7, #20]
 8002f28:	2b00      	cmp	r3, #0
 8002f2a:	d10a      	bne.n	8002f42 <uxQueueMessagesWaitingFromISR+0x28>
 8002f2c:	f04f 0350 	mov.w	r3, #80	; 0x50
 8002f30:	f383 8811 	msr	BASEPRI, r3
 8002f34:	f3bf 8f6f 	isb	sy
 8002f38:	f3bf 8f4f 	dsb	sy
 8002f3c:	60fb      	str	r3, [r7, #12]
 8002f3e:	bf00      	nop
 8002f40:	e7fe      	b.n	8002f40 <uxQueueMessagesWaitingFromISR+0x26>
 8002f42:	697b      	ldr	r3, [r7, #20]
 8002f44:	6b9b      	ldr	r3, [r3, #56]	; 0x38
 8002f46:	613b      	str	r3, [r7, #16]
 8002f48:	693b      	ldr	r3, [r7, #16]
 8002f4a:	4618      	mov	r0, r3
 8002f4c:	371c      	adds	r7, #28
 8002f4e:	46bd      	mov	sp, r7
 8002f50:	f85d 7b04 	ldr.w	r7, [sp], #4
 8002f54:	4770      	bx	lr

08002f56 <vQueueDelete>:
 8002f56:	b580      	push	{r7, lr}
 8002f58:	b084      	sub	sp, #16
 8002f5a:	af00      	add	r7, sp, #0
 8002f5c:	6078      	str	r0, [r7, #4]
 8002f5e:	687b      	ldr	r3, [r7, #4]
 8002f60:	60fb      	str	r3, [r7, #12]
 8002f62:	68fb      	ldr	r3, [r7, #12]
 8002f64:	2b00      	cmp	r3, #0
 8002f66:	d10a      	bne.n	8002f7e <vQueueDelete+0x28>
 8002f68:	f04f 0350 	mov.w	r3, #80	; 0x50
 8002f6c:	f383 8811 	msr	BASEPRI, r3
 8002f70:	f3bf 8f6f 	isb	sy
 8002f74:	f3bf 8f4f 	dsb	sy
 8002f78:	60bb      	str	r3, [r7, #8]
 8002f7a:	bf00      	nop
 8002f7c:	e7fe      	b.n	8002f7c <vQueueDelete+0x26>
 8002f7e:	68f8      	ldr	r0, [r7, #12]
 8002f80:	f000 fa3a 	bl	80033f8 <vQueueUnregisterQueue>
 8002f84:	68f8      	ldr	r0, [r7, #12]
 8002f86:	f7fe f9ad 	bl	80012e4 <vPortFree>
 8002f8a:	bf00      	nop
 8002f8c:	3710      	adds	r7, #16
 8002f8e:	46bd      	mov	sp, r7
 8002f90:	bd80      	pop	{r7, pc}

08002f92 <uxQueueGetQueueNumber>:
 8002f92:	b480      	push	{r7}
 8002f94:	b083      	sub	sp, #12
 8002f96:	af00      	add	r7, sp, #0
 8002f98:	6078      	str	r0, [r7, #4]
 8002f9a:	687b      	ldr	r3, [r7, #4]
 8002f9c:	6c9b      	ldr	r3, [r3, #72]	; 0x48
 8002f9e:	4618      	mov	r0, r3
 8002fa0:	370c      	adds	r7, #12
 8002fa2:	46bd      	mov	sp, r7
 8002fa4:	f85d 7b04 	ldr.w	r7, [sp], #4
 8002fa8:	4770      	bx	lr

08002faa <vQueueSetQueueNumber>:
 8002faa:	b480      	push	{r7}
 8002fac:	b083      	sub	sp, #12
 8002fae:	af00      	add	r7, sp, #0
 8002fb0:	6078      	str	r0, [r7, #4]
 8002fb2:	6039      	str	r1, [r7, #0]
 8002fb4:	687b      	ldr	r3, [r7, #4]
 8002fb6:	683a      	ldr	r2, [r7, #0]
 8002fb8:	649a      	str	r2, [r3, #72]	; 0x48
 8002fba:	bf00      	nop
 8002fbc:	370c      	adds	r7, #12
 8002fbe:	46bd      	mov	sp, r7
 8002fc0:	f85d 7b04 	ldr.w	r7, [sp], #4
 8002fc4:	4770      	bx	lr

08002fc6 <ucQueueGetQueueType>:
 8002fc6:	b480      	push	{r7}
 8002fc8:	b083      	sub	sp, #12
 8002fca:	af00      	add	r7, sp, #0
 8002fcc:	6078      	str	r0, [r7, #4]
 8002fce:	687b      	ldr	r3, [r7, #4]
 8002fd0:	f893 304c 	ldrb.w	r3, [r3, #76]	; 0x4c
 8002fd4:	4618      	mov	r0, r3
 8002fd6:	370c      	adds	r7, #12
 8002fd8:	46bd      	mov	sp, r7
 8002fda:	f85d 7b04 	ldr.w	r7, [sp], #4
 8002fde:	4770      	bx	lr

08002fe0 <uxQueueGetQueueItemSize>:
 8002fe0:	b480      	push	{r7}
 8002fe2:	b083      	sub	sp, #12
 8002fe4:	af00      	add	r7, sp, #0
 8002fe6:	6078      	str	r0, [r7, #4]
 8002fe8:	687b      	ldr	r3, [r7, #4]
 8002fea:	6c1b      	ldr	r3, [r3, #64]	; 0x40
 8002fec:	4618      	mov	r0, r3
 8002fee:	370c      	adds	r7, #12
 8002ff0:	46bd      	mov	sp, r7
 8002ff2:	f85d 7b04 	ldr.w	r7, [sp], #4
 8002ff6:	4770      	bx	lr

08002ff8 <uxQueueGetQueueLength>:
 8002ff8:	b480      	push	{r7}
 8002ffa:	b083      	sub	sp, #12
 8002ffc:	af00      	add	r7, sp, #0
 8002ffe:	6078      	str	r0, [r7, #4]
 8003000:	687b      	ldr	r3, [r7, #4]
 8003002:	6bdb      	ldr	r3, [r3, #60]	; 0x3c
 8003004:	4618      	mov	r0, r3
 8003006:	370c      	adds	r7, #12
 8003008:	46bd      	mov	sp, r7
 800300a:	f85d 7b04 	ldr.w	r7, [sp], #4
 800300e:	4770      	bx	lr

08003010 <prvGetHighestPriorityOfWaitToReceiveList>:
 8003010:	b480      	push	{r7}
 8003012:	b085      	sub	sp, #20
 8003014:	af00      	add	r7, sp, #0
 8003016:	6078      	str	r0, [r7, #4]
 8003018:	687b      	ldr	r3, [r7, #4]
 800301a:	6a5b      	ldr	r3, [r3, #36]	; 0x24
 800301c:	2b00      	cmp	r3, #0
 800301e:	d006      	beq.n	800302e <prvGetHighestPriorityOfWaitToReceiveList+0x1e>
 8003020:	687b      	ldr	r3, [r7, #4]
 8003022:	6b1b      	ldr	r3, [r3, #48]	; 0x30
 8003024:	681b      	ldr	r3, [r3, #0]
 8003026:	f1c3 0310 	rsb	r3, r3, #16
 800302a:	60fb      	str	r3, [r7, #12]
 800302c:	e001      	b.n	8003032 <prvGetHighestPriorityOfWaitToReceiveList+0x22>
 800302e:	2300      	movs	r3, #0
 8003030:	60fb      	str	r3, [r7, #12]
 8003032:	68fb      	ldr	r3, [r7, #12]
 8003034:	4618      	mov	r0, r3
 8003036:	3714      	adds	r7, #20
 8003038:	46bd      	mov	sp, r7
 800303a:	f85d 7b04 	ldr.w	r7, [sp], #4
 800303e:	4770      	bx	lr

08003040 <prvCopyDataToQueue>:
 8003040:	b580      	push	{r7, lr}
 8003042:	b086      	sub	sp, #24
 8003044:	af00      	add	r7, sp, #0
 8003046:	60f8      	str	r0, [r7, #12]
 8003048:	60b9      	str	r1, [r7, #8]
 800304a:	607a      	str	r2, [r7, #4]
 800304c:	2300      	movs	r3, #0
 800304e:	617b      	str	r3, [r7, #20]
 8003050:	68fb      	ldr	r3, [r7, #12]
 8003052:	6b9b      	ldr	r3, [r3, #56]	; 0x38
 8003054:	613b      	str	r3, [r7, #16]
 8003056:	68fb      	ldr	r3, [r7, #12]
 8003058:	6c1b      	ldr	r3, [r3, #64]	; 0x40
 800305a:	2b00      	cmp	r3, #0
 800305c:	d10d      	bne.n	800307a <prvCopyDataToQueue+0x3a>
 800305e:	68fb      	ldr	r3, [r7, #12]
 8003060:	681b      	ldr	r3, [r3, #0]
 8003062:	2b00      	cmp	r3, #0
 8003064:	d14d      	bne.n	8003102 <prvCopyDataToQueue+0xc2>
 8003066:	68fb      	ldr	r3, [r7, #12]
 8003068:	689b      	ldr	r3, [r3, #8]
 800306a:	4618      	mov	r0, r3
 800306c:	f003 faf0 	bl	8006650 <xTaskPriorityDisinherit>
 8003070:	6178      	str	r0, [r7, #20]
 8003072:	68fb      	ldr	r3, [r7, #12]
 8003074:	2200      	movs	r2, #0
 8003076:	609a      	str	r2, [r3, #8]
 8003078:	e043      	b.n	8003102 <prvCopyDataToQueue+0xc2>
 800307a:	687b      	ldr	r3, [r7, #4]
 800307c:	2b00      	cmp	r3, #0
 800307e:	d119      	bne.n	80030b4 <prvCopyDataToQueue+0x74>
 8003080:	68fb      	ldr	r3, [r7, #12]
 8003082:	6858      	ldr	r0, [r3, #4]
 8003084:	68fb      	ldr	r3, [r7, #12]
 8003086:	6c1b      	ldr	r3, [r3, #64]	; 0x40
 8003088:	461a      	mov	r2, r3
 800308a:	68b9      	ldr	r1, [r7, #8]
 800308c:	f004 ffc0 	bl	8008010 <memcpy>
 8003090:	68fb      	ldr	r3, [r7, #12]
 8003092:	685a      	ldr	r2, [r3, #4]
 8003094:	68fb      	ldr	r3, [r7, #12]
 8003096:	6c1b      	ldr	r3, [r3, #64]	; 0x40
 8003098:	441a      	add	r2, r3
 800309a:	68fb      	ldr	r3, [r7, #12]
 800309c:	605a      	str	r2, [r3, #4]
 800309e:	68fb      	ldr	r3, [r7, #12]
 80030a0:	685a      	ldr	r2, [r3, #4]
 80030a2:	68fb      	ldr	r3, [r7, #12]
 80030a4:	689b      	ldr	r3, [r3, #8]
 80030a6:	429a      	cmp	r2, r3
 80030a8:	d32b      	bcc.n	8003102 <prvCopyDataToQueue+0xc2>
 80030aa:	68fb      	ldr	r3, [r7, #12]
 80030ac:	681a      	ldr	r2, [r3, #0]
 80030ae:	68fb      	ldr	r3, [r7, #12]
 80030b0:	605a      	str	r2, [r3, #4]
 80030b2:	e026      	b.n	8003102 <prvCopyDataToQueue+0xc2>
 80030b4:	68fb      	ldr	r3, [r7, #12]
 80030b6:	68d8      	ldr	r0, [r3, #12]
 80030b8:	68fb      	ldr	r3, [r7, #12]
 80030ba:	6c1b      	ldr	r3, [r3, #64]	; 0x40
 80030bc:	461a      	mov	r2, r3
 80030be:	68b9      	ldr	r1, [r7, #8]
 80030c0:	f004 ffa6 	bl	8008010 <memcpy>
 80030c4:	68fb      	ldr	r3, [r7, #12]
 80030c6:	68da      	ldr	r2, [r3, #12]
 80030c8:	68fb      	ldr	r3, [r7, #12]
 80030ca:	6c1b      	ldr	r3, [r3, #64]	; 0x40
 80030cc:	425b      	negs	r3, r3
 80030ce:	441a      	add	r2, r3
 80030d0:	68fb      	ldr	r3, [r7, #12]
 80030d2:	60da      	str	r2, [r3, #12]
 80030d4:	68fb      	ldr	r3, [r7, #12]
 80030d6:	68da      	ldr	r2, [r3, #12]
 80030d8:	68fb      	ldr	r3, [r7, #12]
 80030da:	681b      	ldr	r3, [r3, #0]
 80030dc:	429a      	cmp	r2, r3
 80030de:	d207      	bcs.n	80030f0 <prvCopyDataToQueue+0xb0>
 80030e0:	68fb      	ldr	r3, [r7, #12]
 80030e2:	689a      	ldr	r2, [r3, #8]
 80030e4:	68fb      	ldr	r3, [r7, #12]
 80030e6:	6c1b      	ldr	r3, [r3, #64]	; 0x40
 80030e8:	425b      	negs	r3, r3
 80030ea:	441a      	add	r2, r3
 80030ec:	68fb      	ldr	r3, [r7, #12]
 80030ee:	60da      	str	r2, [r3, #12]
 80030f0:	687b      	ldr	r3, [r7, #4]
 80030f2:	2b02      	cmp	r3, #2
 80030f4:	d105      	bne.n	8003102 <prvCopyDataToQueue+0xc2>
 80030f6:	693b      	ldr	r3, [r7, #16]
 80030f8:	2b00      	cmp	r3, #0
 80030fa:	d002      	beq.n	8003102 <prvCopyDataToQueue+0xc2>
 80030fc:	693b      	ldr	r3, [r7, #16]
 80030fe:	3b01      	subs	r3, #1
 8003100:	613b      	str	r3, [r7, #16]
 8003102:	693b      	ldr	r3, [r7, #16]
 8003104:	1c5a      	adds	r2, r3, #1
 8003106:	68fb      	ldr	r3, [r7, #12]
 8003108:	639a      	str	r2, [r3, #56]	; 0x38
 800310a:	697b      	ldr	r3, [r7, #20]
 800310c:	4618      	mov	r0, r3
 800310e:	3718      	adds	r7, #24
 8003110:	46bd      	mov	sp, r7
 8003112:	bd80      	pop	{r7, pc}

08003114 <prvCopyDataFromQueue>:
 8003114:	b580      	push	{r7, lr}
 8003116:	b082      	sub	sp, #8
 8003118:	af00      	add	r7, sp, #0
 800311a:	6078      	str	r0, [r7, #4]
 800311c:	6039      	str	r1, [r7, #0]
 800311e:	687b      	ldr	r3, [r7, #4]
 8003120:	6c1b      	ldr	r3, [r3, #64]	; 0x40
 8003122:	2b00      	cmp	r3, #0
 8003124:	d018      	beq.n	8003158 <prvCopyDataFromQueue+0x44>
 8003126:	687b      	ldr	r3, [r7, #4]
 8003128:	68da      	ldr	r2, [r3, #12]
 800312a:	687b      	ldr	r3, [r7, #4]
 800312c:	6c1b      	ldr	r3, [r3, #64]	; 0x40
 800312e:	441a      	add	r2, r3
 8003130:	687b      	ldr	r3, [r7, #4]
 8003132:	60da      	str	r2, [r3, #12]
 8003134:	687b      	ldr	r3, [r7, #4]
 8003136:	68da      	ldr	r2, [r3, #12]
 8003138:	687b      	ldr	r3, [r7, #4]
 800313a:	689b      	ldr	r3, [r3, #8]
 800313c:	429a      	cmp	r2, r3
 800313e:	d303      	bcc.n	8003148 <prvCopyDataFromQueue+0x34>
 8003140:	687b      	ldr	r3, [r7, #4]
 8003142:	681a      	ldr	r2, [r3, #0]
 8003144:	687b      	ldr	r3, [r7, #4]
 8003146:	60da      	str	r2, [r3, #12]
 8003148:	687b      	ldr	r3, [r7, #4]
 800314a:	68d9      	ldr	r1, [r3, #12]
 800314c:	687b      	ldr	r3, [r7, #4]
 800314e:	6c1b      	ldr	r3, [r3, #64]	; 0x40
 8003150:	461a      	mov	r2, r3
 8003152:	6838      	ldr	r0, [r7, #0]
 8003154:	f004 ff5c 	bl	8008010 <memcpy>
 8003158:	bf00      	nop
 800315a:	3708      	adds	r7, #8
 800315c:	46bd      	mov	sp, r7
 800315e:	bd80      	pop	{r7, pc}

08003160 <prvUnlockQueue>:
 8003160:	b580      	push	{r7, lr}
 8003162:	b084      	sub	sp, #16
 8003164:	af00      	add	r7, sp, #0
 8003166:	6078      	str	r0, [r7, #4]
 8003168:	f7fd fe78 	bl	8000e5c <vPortEnterCritical>
 800316c:	687b      	ldr	r3, [r7, #4]
 800316e:	f893 3045 	ldrb.w	r3, [r3, #69]	; 0x45
 8003172:	73fb      	strb	r3, [r7, #15]
 8003174:	e011      	b.n	800319a <prvUnlockQueue+0x3a>
 8003176:	687b      	ldr	r3, [r7, #4]
 8003178:	6a5b      	ldr	r3, [r3, #36]	; 0x24
 800317a:	2b00      	cmp	r3, #0
 800317c:	d012      	beq.n	80031a4 <prvUnlockQueue+0x44>
 800317e:	687b      	ldr	r3, [r7, #4]
 8003180:	3324      	adds	r3, #36	; 0x24
 8003182:	4618      	mov	r0, r3
 8003184:	f002 fd76 	bl	8005c74 <xTaskRemoveFromEventList>
 8003188:	4603      	mov	r3, r0
 800318a:	2b00      	cmp	r3, #0
 800318c:	d001      	beq.n	8003192 <prvUnlockQueue+0x32>
 800318e:	f002 ffad 	bl	80060ec <vTaskMissedYield>
 8003192:	7bfb      	ldrb	r3, [r7, #15]
 8003194:	3b01      	subs	r3, #1
 8003196:	b2db      	uxtb	r3, r3
 8003198:	73fb      	strb	r3, [r7, #15]
 800319a:	f997 300f 	ldrsb.w	r3, [r7, #15]
 800319e:	2b00      	cmp	r3, #0
 80031a0:	dce9      	bgt.n	8003176 <prvUnlockQueue+0x16>
 80031a2:	e000      	b.n	80031a6 <prvUnlockQueue+0x46>
 80031a4:	bf00      	nop
 80031a6:	687b      	ldr	r3, [r7, #4]
 80031a8:	22ff      	movs	r2, #255	; 0xff
 80031aa:	f883 2045 	strb.w	r2, [r3, #69]	; 0x45
 80031ae:	f7fd fe85 	bl	8000ebc <vPortExitCritical>
 80031b2:	f7fd fe53 	bl	8000e5c <vPortEnterCritical>
 80031b6:	687b      	ldr	r3, [r7, #4]
 80031b8:	f893 3044 	ldrb.w	r3, [r3, #68]	; 0x44
 80031bc:	73bb      	strb	r3, [r7, #14]
 80031be:	e011      	b.n	80031e4 <prvUnlockQueue+0x84>
 80031c0:	687b      	ldr	r3, [r7, #4]
 80031c2:	691b      	ldr	r3, [r3, #16]
 80031c4:	2b00      	cmp	r3, #0
 80031c6:	d012      	beq.n	80031ee <prvUnlockQueue+0x8e>
 80031c8:	687b      	ldr	r3, [r7, #4]
 80031ca:	3310      	adds	r3, #16
 80031cc:	4618      	mov	r0, r3
 80031ce:	f002 fd51 	bl	8005c74 <xTaskRemoveFromEventList>
 80031d2:	4603      	mov	r3, r0
 80031d4:	2b00      	cmp	r3, #0
 80031d6:	d001      	beq.n	80031dc <prvUnlockQueue+0x7c>
 80031d8:	f002 ff88 	bl	80060ec <vTaskMissedYield>
 80031dc:	7bbb      	ldrb	r3, [r7, #14]
 80031de:	3b01      	subs	r3, #1
 80031e0:	b2db      	uxtb	r3, r3
 80031e2:	73bb      	strb	r3, [r7, #14]
 80031e4:	f997 300e 	ldrsb.w	r3, [r7, #14]
 80031e8:	2b00      	cmp	r3, #0
 80031ea:	dce9      	bgt.n	80031c0 <prvUnlockQueue+0x60>
 80031ec:	e000      	b.n	80031f0 <prvUnlockQueue+0x90>
 80031ee:	bf00      	nop
 80031f0:	687b      	ldr	r3, [r7, #4]
 80031f2:	22ff      	movs	r2, #255	; 0xff
 80031f4:	f883 2044 	strb.w	r2, [r3, #68]	; 0x44
 80031f8:	f7fd fe60 	bl	8000ebc <vPortExitCritical>
 80031fc:	bf00      	nop
 80031fe:	3710      	adds	r7, #16
 8003200:	46bd      	mov	sp, r7
 8003202:	bd80      	pop	{r7, pc}

08003204 <prvIsQueueEmpty>:
 8003204:	b580      	push	{r7, lr}
 8003206:	b084      	sub	sp, #16
 8003208:	af00      	add	r7, sp, #0
 800320a:	6078      	str	r0, [r7, #4]
 800320c:	f7fd fe26 	bl	8000e5c <vPortEnterCritical>
 8003210:	687b      	ldr	r3, [r7, #4]
 8003212:	6b9b      	ldr	r3, [r3, #56]	; 0x38
 8003214:	2b00      	cmp	r3, #0
 8003216:	d102      	bne.n	800321e <prvIsQueueEmpty+0x1a>
 8003218:	2301      	movs	r3, #1
 800321a:	60fb      	str	r3, [r7, #12]
 800321c:	e001      	b.n	8003222 <prvIsQueueEmpty+0x1e>
 800321e:	2300      	movs	r3, #0
 8003220:	60fb      	str	r3, [r7, #12]
 8003222:	f7fd fe4b 	bl	8000ebc <vPortExitCritical>
 8003226:	68fb      	ldr	r3, [r7, #12]
 8003228:	4618      	mov	r0, r3
 800322a:	3710      	adds	r7, #16
 800322c:	46bd      	mov	sp, r7
 800322e:	bd80      	pop	{r7, pc}

08003230 <xQueueIsQueueEmptyFromISR>:
 8003230:	b480      	push	{r7}
 8003232:	b087      	sub	sp, #28
 8003234:	af00      	add	r7, sp, #0
 8003236:	6078      	str	r0, [r7, #4]
 8003238:	687b      	ldr	r3, [r7, #4]
 800323a:	613b      	str	r3, [r7, #16]
 800323c:	693b      	ldr	r3, [r7, #16]
 800323e:	2b00      	cmp	r3, #0
 8003240:	d10a      	bne.n	8003258 <xQueueIsQueueEmptyFromISR+0x28>
 8003242:	f04f 0350 	mov.w	r3, #80	; 0x50
 8003246:	f383 8811 	msr	BASEPRI, r3
 800324a:	f3bf 8f6f 	isb	sy
 800324e:	f3bf 8f4f 	dsb	sy
 8003252:	60fb      	str	r3, [r7, #12]
 8003254:	bf00      	nop
 8003256:	e7fe      	b.n	8003256 <xQueueIsQueueEmptyFromISR+0x26>
 8003258:	693b      	ldr	r3, [r7, #16]
 800325a:	6b9b      	ldr	r3, [r3, #56]	; 0x38
 800325c:	2b00      	cmp	r3, #0
 800325e:	d102      	bne.n	8003266 <xQueueIsQueueEmptyFromISR+0x36>
 8003260:	2301      	movs	r3, #1
 8003262:	617b      	str	r3, [r7, #20]
 8003264:	e001      	b.n	800326a <xQueueIsQueueEmptyFromISR+0x3a>
 8003266:	2300      	movs	r3, #0
 8003268:	617b      	str	r3, [r7, #20]
 800326a:	697b      	ldr	r3, [r7, #20]
 800326c:	4618      	mov	r0, r3
 800326e:	371c      	adds	r7, #28
 8003270:	46bd      	mov	sp, r7
 8003272:	f85d 7b04 	ldr.w	r7, [sp], #4
 8003276:	4770      	bx	lr

08003278 <prvIsQueueFull>:
 8003278:	b580      	push	{r7, lr}
 800327a:	b084      	sub	sp, #16
 800327c:	af00      	add	r7, sp, #0
 800327e:	6078      	str	r0, [r7, #4]
 8003280:	f7fd fdec 	bl	8000e5c <vPortEnterCritical>
 8003284:	687b      	ldr	r3, [r7, #4]
 8003286:	6b9a      	ldr	r2, [r3, #56]	; 0x38
 8003288:	687b      	ldr	r3, [r7, #4]
 800328a:	6bdb      	ldr	r3, [r3, #60]	; 0x3c
 800328c:	429a      	cmp	r2, r3
 800328e:	d102      	bne.n	8003296 <prvIsQueueFull+0x1e>
 8003290:	2301      	movs	r3, #1
 8003292:	60fb      	str	r3, [r7, #12]
 8003294:	e001      	b.n	800329a <prvIsQueueFull+0x22>
 8003296:	2300      	movs	r3, #0
 8003298:	60fb      	str	r3, [r7, #12]
 800329a:	f7fd fe0f 	bl	8000ebc <vPortExitCritical>
 800329e:	68fb      	ldr	r3, [r7, #12]
 80032a0:	4618      	mov	r0, r3
 80032a2:	3710      	adds	r7, #16
 80032a4:	46bd      	mov	sp, r7
 80032a6:	bd80      	pop	{r7, pc}

080032a8 <xQueueIsQueueFullFromISR>:
 80032a8:	b480      	push	{r7}
 80032aa:	b087      	sub	sp, #28
 80032ac:	af00      	add	r7, sp, #0
 80032ae:	6078      	str	r0, [r7, #4]
 80032b0:	687b      	ldr	r3, [r7, #4]
 80032b2:	613b      	str	r3, [r7, #16]
 80032b4:	693b      	ldr	r3, [r7, #16]
 80032b6:	2b00      	cmp	r3, #0
 80032b8:	d10a      	bne.n	80032d0 <xQueueIsQueueFullFromISR+0x28>
 80032ba:	f04f 0350 	mov.w	r3, #80	; 0x50
 80032be:	f383 8811 	msr	BASEPRI, r3
 80032c2:	f3bf 8f6f 	isb	sy
 80032c6:	f3bf 8f4f 	dsb	sy
 80032ca:	60fb      	str	r3, [r7, #12]
 80032cc:	bf00      	nop
 80032ce:	e7fe      	b.n	80032ce <xQueueIsQueueFullFromISR+0x26>
 80032d0:	693b      	ldr	r3, [r7, #16]
 80032d2:	6b9a      	ldr	r2, [r3, #56]	; 0x38
 80032d4:	693b      	ldr	r3, [r7, #16]
 80032d6:	6bdb      	ldr	r3, [r3, #60]	; 0x3c
 80032d8:	429a      	cmp	r2, r3
 80032da:	d102      	bne.n	80032e2 <xQueueIsQueueFullFromISR+0x3a>
 80032dc:	2301      	movs	r3, #1
 80032de:	617b      	str	r3, [r7, #20]
 80032e0:	e001      	b.n	80032e6 <xQueueIsQueueFullFromISR+0x3e>
 80032e2:	2300      	movs	r3, #0
 80032e4:	617b      	str	r3, [r7, #20]
 80032e6:	697b      	ldr	r3, [r7, #20]
 80032e8:	4618      	mov	r0, r3
 80032ea:	371c      	adds	r7, #28
 80032ec:	46bd      	mov	sp, r7
 80032ee:	f85d 7b04 	ldr.w	r7, [sp], #4
 80032f2:	4770      	bx	lr

080032f4 <vQueueAddToRegistry>:
 80032f4:	b480      	push	{r7}
 80032f6:	b087      	sub	sp, #28
 80032f8:	af00      	add	r7, sp, #0
 80032fa:	6078      	str	r0, [r7, #4]
 80032fc:	6039      	str	r1, [r7, #0]
 80032fe:	2300      	movs	r3, #0
 8003300:	613b      	str	r3, [r7, #16]
 8003302:	687b      	ldr	r3, [r7, #4]
 8003304:	2b00      	cmp	r3, #0
 8003306:	d10a      	bne.n	800331e <vQueueAddToRegistry+0x2a>
 8003308:	f04f 0350 	mov.w	r3, #80	; 0x50
 800330c:	f383 8811 	msr	BASEPRI, r3
 8003310:	f3bf 8f6f 	isb	sy
 8003314:	f3bf 8f4f 	dsb	sy
 8003318:	60fb      	str	r3, [r7, #12]
 800331a:	bf00      	nop
 800331c:	e7fe      	b.n	800331c <vQueueAddToRegistry+0x28>
 800331e:	683b      	ldr	r3, [r7, #0]
 8003320:	2b00      	cmp	r3, #0
 8003322:	d024      	beq.n	800336e <vQueueAddToRegistry+0x7a>
 8003324:	2300      	movs	r3, #0
 8003326:	617b      	str	r3, [r7, #20]
 8003328:	e01e      	b.n	8003368 <vQueueAddToRegistry+0x74>
 800332a:	4a18      	ldr	r2, [pc, #96]	; (800338c <vQueueAddToRegistry+0x98>)
 800332c:	697b      	ldr	r3, [r7, #20]
 800332e:	00db      	lsls	r3, r3, #3
 8003330:	4413      	add	r3, r2
 8003332:	685b      	ldr	r3, [r3, #4]
 8003334:	687a      	ldr	r2, [r7, #4]
 8003336:	429a      	cmp	r2, r3
 8003338:	d105      	bne.n	8003346 <vQueueAddToRegistry+0x52>
 800333a:	697b      	ldr	r3, [r7, #20]
 800333c:	00db      	lsls	r3, r3, #3
 800333e:	4a13      	ldr	r2, [pc, #76]	; (800338c <vQueueAddToRegistry+0x98>)
 8003340:	4413      	add	r3, r2
 8003342:	613b      	str	r3, [r7, #16]
 8003344:	e013      	b.n	800336e <vQueueAddToRegistry+0x7a>
 8003346:	693b      	ldr	r3, [r7, #16]
 8003348:	2b00      	cmp	r3, #0
 800334a:	d10a      	bne.n	8003362 <vQueueAddToRegistry+0x6e>
 800334c:	4a0f      	ldr	r2, [pc, #60]	; (800338c <vQueueAddToRegistry+0x98>)
 800334e:	697b      	ldr	r3, [r7, #20]
 8003350:	f852 3033 	ldr.w	r3, [r2, r3, lsl #3]
 8003354:	2b00      	cmp	r3, #0
 8003356:	d104      	bne.n	8003362 <vQueueAddToRegistry+0x6e>
 8003358:	697b      	ldr	r3, [r7, #20]
 800335a:	00db      	lsls	r3, r3, #3
 800335c:	4a0b      	ldr	r2, [pc, #44]	; (800338c <vQueueAddToRegistry+0x98>)
 800335e:	4413      	add	r3, r2
 8003360:	613b      	str	r3, [r7, #16]
 8003362:	697b      	ldr	r3, [r7, #20]
 8003364:	3301      	adds	r3, #1
 8003366:	617b      	str	r3, [r7, #20]
 8003368:	697b      	ldr	r3, [r7, #20]
 800336a:	2b07      	cmp	r3, #7
 800336c:	d9dd      	bls.n	800332a <vQueueAddToRegistry+0x36>
 800336e:	693b      	ldr	r3, [r7, #16]
 8003370:	2b00      	cmp	r3, #0
 8003372:	d005      	beq.n	8003380 <vQueueAddToRegistry+0x8c>
 8003374:	693b      	ldr	r3, [r7, #16]
 8003376:	683a      	ldr	r2, [r7, #0]
 8003378:	601a      	str	r2, [r3, #0]
 800337a:	693b      	ldr	r3, [r7, #16]
 800337c:	687a      	ldr	r2, [r7, #4]
 800337e:	605a      	str	r2, [r3, #4]
 8003380:	bf00      	nop
 8003382:	371c      	adds	r7, #28
 8003384:	46bd      	mov	sp, r7
 8003386:	f85d 7b04 	ldr.w	r7, [sp], #4
 800338a:	4770      	bx	lr
 800338c:	20012ccc 	andcs	r2, r1, ip, asr #25

08003390 <pcQueueGetName>:
 8003390:	b480      	push	{r7}
 8003392:	b087      	sub	sp, #28
 8003394:	af00      	add	r7, sp, #0
 8003396:	6078      	str	r0, [r7, #4]
 8003398:	2300      	movs	r3, #0
 800339a:	613b      	str	r3, [r7, #16]
 800339c:	687b      	ldr	r3, [r7, #4]
 800339e:	2b00      	cmp	r3, #0
 80033a0:	d10a      	bne.n	80033b8 <pcQueueGetName+0x28>
 80033a2:	f04f 0350 	mov.w	r3, #80	; 0x50
 80033a6:	f383 8811 	msr	BASEPRI, r3
 80033aa:	f3bf 8f6f 	isb	sy
 80033ae:	f3bf 8f4f 	dsb	sy
 80033b2:	60fb      	str	r3, [r7, #12]
 80033b4:	bf00      	nop
 80033b6:	e7fe      	b.n	80033b6 <pcQueueGetName+0x26>
 80033b8:	2300      	movs	r3, #0
 80033ba:	617b      	str	r3, [r7, #20]
 80033bc:	e010      	b.n	80033e0 <pcQueueGetName+0x50>
 80033be:	4a0d      	ldr	r2, [pc, #52]	; (80033f4 <pcQueueGetName+0x64>)
 80033c0:	697b      	ldr	r3, [r7, #20]
 80033c2:	00db      	lsls	r3, r3, #3
 80033c4:	4413      	add	r3, r2
 80033c6:	685b      	ldr	r3, [r3, #4]
 80033c8:	687a      	ldr	r2, [r7, #4]
 80033ca:	429a      	cmp	r2, r3
 80033cc:	d105      	bne.n	80033da <pcQueueGetName+0x4a>
 80033ce:	4a09      	ldr	r2, [pc, #36]	; (80033f4 <pcQueueGetName+0x64>)
 80033d0:	697b      	ldr	r3, [r7, #20]
 80033d2:	f852 3033 	ldr.w	r3, [r2, r3, lsl #3]
 80033d6:	613b      	str	r3, [r7, #16]
 80033d8:	e005      	b.n	80033e6 <pcQueueGetName+0x56>
 80033da:	697b      	ldr	r3, [r7, #20]
 80033dc:	3301      	adds	r3, #1
 80033de:	617b      	str	r3, [r7, #20]
 80033e0:	697b      	ldr	r3, [r7, #20]
 80033e2:	2b07      	cmp	r3, #7
 80033e4:	d9eb      	bls.n	80033be <pcQueueGetName+0x2e>
 80033e6:	693b      	ldr	r3, [r7, #16]
 80033e8:	4618      	mov	r0, r3
 80033ea:	371c      	adds	r7, #28
 80033ec:	46bd      	mov	sp, r7
 80033ee:	f85d 7b04 	ldr.w	r7, [sp], #4
 80033f2:	4770      	bx	lr
 80033f4:	20012ccc 	andcs	r2, r1, ip, asr #25

080033f8 <vQueueUnregisterQueue>:
 80033f8:	b480      	push	{r7}
 80033fa:	b085      	sub	sp, #20
 80033fc:	af00      	add	r7, sp, #0
 80033fe:	6078      	str	r0, [r7, #4]
 8003400:	687b      	ldr	r3, [r7, #4]
 8003402:	2b00      	cmp	r3, #0
 8003404:	d10a      	bne.n	800341c <vQueueUnregisterQueue+0x24>
 8003406:	f04f 0350 	mov.w	r3, #80	; 0x50
 800340a:	f383 8811 	msr	BASEPRI, r3
 800340e:	f3bf 8f6f 	isb	sy
 8003412:	f3bf 8f4f 	dsb	sy
 8003416:	60bb      	str	r3, [r7, #8]
 8003418:	bf00      	nop
 800341a:	e7fe      	b.n	800341a <vQueueUnregisterQueue+0x22>
 800341c:	2300      	movs	r3, #0
 800341e:	60fb      	str	r3, [r7, #12]
 8003420:	e016      	b.n	8003450 <vQueueUnregisterQueue+0x58>
 8003422:	4a10      	ldr	r2, [pc, #64]	; (8003464 <vQueueUnregisterQueue+0x6c>)
 8003424:	68fb      	ldr	r3, [r7, #12]
 8003426:	00db      	lsls	r3, r3, #3
 8003428:	4413      	add	r3, r2
 800342a:	685b      	ldr	r3, [r3, #4]
 800342c:	687a      	ldr	r2, [r7, #4]
 800342e:	429a      	cmp	r2, r3
 8003430:	d10b      	bne.n	800344a <vQueueUnregisterQueue+0x52>
 8003432:	4a0c      	ldr	r2, [pc, #48]	; (8003464 <vQueueUnregisterQueue+0x6c>)
 8003434:	68fb      	ldr	r3, [r7, #12]
 8003436:	2100      	movs	r1, #0
 8003438:	f842 1033 	str.w	r1, [r2, r3, lsl #3]
 800343c:	4a09      	ldr	r2, [pc, #36]	; (8003464 <vQueueUnregisterQueue+0x6c>)
 800343e:	68fb      	ldr	r3, [r7, #12]
 8003440:	00db      	lsls	r3, r3, #3
 8003442:	4413      	add	r3, r2
 8003444:	2200      	movs	r2, #0
 8003446:	605a      	str	r2, [r3, #4]
 8003448:	e006      	b.n	8003458 <vQueueUnregisterQueue+0x60>
 800344a:	68fb      	ldr	r3, [r7, #12]
 800344c:	3301      	adds	r3, #1
 800344e:	60fb      	str	r3, [r7, #12]
 8003450:	68fb      	ldr	r3, [r7, #12]
 8003452:	2b07      	cmp	r3, #7
 8003454:	d9e5      	bls.n	8003422 <vQueueUnregisterQueue+0x2a>
 8003456:	bf00      	nop
 8003458:	bf00      	nop
 800345a:	3714      	adds	r7, #20
 800345c:	46bd      	mov	sp, r7
 800345e:	f85d 7b04 	ldr.w	r7, [sp], #4
 8003462:	4770      	bx	lr
 8003464:	20012ccc 	andcs	r2, r1, ip, asr #25

08003468 <vQueueWaitForMessageRestricted>:
 8003468:	b580      	push	{r7, lr}
 800346a:	b086      	sub	sp, #24
 800346c:	af00      	add	r7, sp, #0
 800346e:	60f8      	str	r0, [r7, #12]
 8003470:	60b9      	str	r1, [r7, #8]
 8003472:	607a      	str	r2, [r7, #4]
 8003474:	68fb      	ldr	r3, [r7, #12]
 8003476:	617b      	str	r3, [r7, #20]
 8003478:	f7fd fcf0 	bl	8000e5c <vPortEnterCritical>
 800347c:	697b      	ldr	r3, [r7, #20]
 800347e:	f893 3044 	ldrb.w	r3, [r3, #68]	; 0x44
 8003482:	b25b      	sxtb	r3, r3
 8003484:	f1b3 3fff 	cmp.w	r3, #4294967295	; 0xffffffff
 8003488:	d103      	bne.n	8003492 <vQueueWaitForMessageRestricted+0x2a>
 800348a:	697b      	ldr	r3, [r7, #20]
 800348c:	2200      	movs	r2, #0
 800348e:	f883 2044 	strb.w	r2, [r3, #68]	; 0x44
 8003492:	697b      	ldr	r3, [r7, #20]
 8003494:	f893 3045 	ldrb.w	r3, [r3, #69]	; 0x45
 8003498:	b25b      	sxtb	r3, r3
 800349a:	f1b3 3fff 	cmp.w	r3, #4294967295	; 0xffffffff
 800349e:	d103      	bne.n	80034a8 <vQueueWaitForMessageRestricted+0x40>
 80034a0:	697b      	ldr	r3, [r7, #20]
 80034a2:	2200      	movs	r2, #0
 80034a4:	f883 2045 	strb.w	r2, [r3, #69]	; 0x45
 80034a8:	f7fd fd08 	bl	8000ebc <vPortExitCritical>
 80034ac:	697b      	ldr	r3, [r7, #20]
 80034ae:	6b9b      	ldr	r3, [r3, #56]	; 0x38
 80034b0:	2b00      	cmp	r3, #0
 80034b2:	d106      	bne.n	80034c2 <vQueueWaitForMessageRestricted+0x5a>
 80034b4:	697b      	ldr	r3, [r7, #20]
 80034b6:	3324      	adds	r3, #36	; 0x24
 80034b8:	687a      	ldr	r2, [r7, #4]
 80034ba:	68b9      	ldr	r1, [r7, #8]
 80034bc:	4618      	mov	r0, r3
 80034be:	f002 fb93 	bl	8005be8 <vTaskPlaceOnEventListRestricted>
 80034c2:	6978      	ldr	r0, [r7, #20]
 80034c4:	f7ff fe4c 	bl	8003160 <prvUnlockQueue>
 80034c8:	bf00      	nop
 80034ca:	3718      	adds	r7, #24
 80034cc:	46bd      	mov	sp, r7
 80034ce:	bd80      	pop	{r7, pc}

080034d0 <xStreamBufferGenericCreate>:
 80034d0:	b580      	push	{r7, lr}
 80034d2:	b08e      	sub	sp, #56	; 0x38
 80034d4:	af04      	add	r7, sp, #16
 80034d6:	60f8      	str	r0, [r7, #12]
 80034d8:	60b9      	str	r1, [r7, #8]
 80034da:	607a      	str	r2, [r7, #4]
 80034dc:	603b      	str	r3, [r7, #0]
 80034de:	687b      	ldr	r3, [r7, #4]
 80034e0:	2b01      	cmp	r3, #1
 80034e2:	d110      	bne.n	8003506 <xStreamBufferGenericCreate+0x36>
 80034e4:	2301      	movs	r3, #1
 80034e6:	f887 3023 	strb.w	r3, [r7, #35]	; 0x23
 80034ea:	68fb      	ldr	r3, [r7, #12]
 80034ec:	2b04      	cmp	r3, #4
 80034ee:	d82f      	bhi.n	8003550 <xStreamBufferGenericCreate+0x80>
 80034f0:	f04f 0350 	mov.w	r3, #80	; 0x50
 80034f4:	f383 8811 	msr	BASEPRI, r3
 80034f8:	f3bf 8f6f 	isb	sy
 80034fc:	f3bf 8f4f 	dsb	sy
 8003500:	61fb      	str	r3, [r7, #28]
 8003502:	bf00      	nop
 8003504:	e7fe      	b.n	8003504 <xStreamBufferGenericCreate+0x34>
 8003506:	687b      	ldr	r3, [r7, #4]
 8003508:	2b02      	cmp	r3, #2
 800350a:	d110      	bne.n	800352e <xStreamBufferGenericCreate+0x5e>
 800350c:	2304      	movs	r3, #4
 800350e:	f887 3023 	strb.w	r3, [r7, #35]	; 0x23
 8003512:	68fb      	ldr	r3, [r7, #12]
 8003514:	2b00      	cmp	r3, #0
 8003516:	d11b      	bne.n	8003550 <xStreamBufferGenericCreate+0x80>
 8003518:	f04f 0350 	mov.w	r3, #80	; 0x50
 800351c:	f383 8811 	msr	BASEPRI, r3
 8003520:	f3bf 8f6f 	isb	sy
 8003524:	f3bf 8f4f 	dsb	sy
 8003528:	61bb      	str	r3, [r7, #24]
 800352a:	bf00      	nop
 800352c:	e7fe      	b.n	800352c <xStreamBufferGenericCreate+0x5c>
 800352e:	2300      	movs	r3, #0
 8003530:	f887 3023 	strb.w	r3, [r7, #35]	; 0x23
 8003534:	68fb      	ldr	r3, [r7, #12]
 8003536:	2b00      	cmp	r3, #0
 8003538:	d10a      	bne.n	8003550 <xStreamBufferGenericCreate+0x80>
 800353a:	f04f 0350 	mov.w	r3, #80	; 0x50
 800353e:	f383 8811 	msr	BASEPRI, r3
 8003542:	f3bf 8f6f 	isb	sy
 8003546:	f3bf 8f4f 	dsb	sy
 800354a:	617b      	str	r3, [r7, #20]
 800354c:	bf00      	nop
 800354e:	e7fe      	b.n	800354e <xStreamBufferGenericCreate+0x7e>
 8003550:	68ba      	ldr	r2, [r7, #8]
 8003552:	68fb      	ldr	r3, [r7, #12]
 8003554:	429a      	cmp	r2, r3
 8003556:	d90a      	bls.n	800356e <xStreamBufferGenericCreate+0x9e>
 8003558:	f04f 0350 	mov.w	r3, #80	; 0x50
 800355c:	f383 8811 	msr	BASEPRI, r3
 8003560:	f3bf 8f6f 	isb	sy
 8003564:	f3bf 8f4f 	dsb	sy
 8003568:	613b      	str	r3, [r7, #16]
 800356a:	bf00      	nop
 800356c:	e7fe      	b.n	800356c <xStreamBufferGenericCreate+0x9c>
 800356e:	68bb      	ldr	r3, [r7, #8]
 8003570:	2b00      	cmp	r3, #0
 8003572:	d101      	bne.n	8003578 <xStreamBufferGenericCreate+0xa8>
 8003574:	2301      	movs	r3, #1
 8003576:	60bb      	str	r3, [r7, #8]
 8003578:	68fb      	ldr	r3, [r7, #12]
 800357a:	f113 0f2a 	cmn.w	r3, #42	; 0x2a
 800357e:	d809      	bhi.n	8003594 <xStreamBufferGenericCreate+0xc4>
 8003580:	68fb      	ldr	r3, [r7, #12]
 8003582:	3301      	adds	r3, #1
 8003584:	60fb      	str	r3, [r7, #12]
 8003586:	68fb      	ldr	r3, [r7, #12]
 8003588:	3328      	adds	r3, #40	; 0x28
 800358a:	4618      	mov	r0, r3
 800358c:	f7fd fd7a 	bl	8001084 <pvPortMalloc>
 8003590:	6278      	str	r0, [r7, #36]	; 0x24
 8003592:	e001      	b.n	8003598 <xStreamBufferGenericCreate+0xc8>
 8003594:	2300      	movs	r3, #0
 8003596:	627b      	str	r3, [r7, #36]	; 0x24
 8003598:	6a7b      	ldr	r3, [r7, #36]	; 0x24
 800359a:	2b00      	cmp	r3, #0
 800359c:	d00e      	beq.n	80035bc <xStreamBufferGenericCreate+0xec>
 800359e:	6a7b      	ldr	r3, [r7, #36]	; 0x24
 80035a0:	f103 0128 	add.w	r1, r3, #40	; 0x28
 80035a4:	6b3b      	ldr	r3, [r7, #48]	; 0x30
 80035a6:	9302      	str	r3, [sp, #8]
 80035a8:	683b      	ldr	r3, [r7, #0]
 80035aa:	9301      	str	r3, [sp, #4]
 80035ac:	f897 3023 	ldrb.w	r3, [r7, #35]	; 0x23
 80035b0:	9300      	str	r3, [sp, #0]
 80035b2:	68bb      	ldr	r3, [r7, #8]
 80035b4:	68fa      	ldr	r2, [r7, #12]
 80035b6:	6a78      	ldr	r0, [r7, #36]	; 0x24
 80035b8:	f000 fe4b 	bl	8004252 <prvInitialiseNewStreamBuffer>
 80035bc:	6a7b      	ldr	r3, [r7, #36]	; 0x24
 80035be:	4618      	mov	r0, r3
 80035c0:	3728      	adds	r7, #40	; 0x28
 80035c2:	46bd      	mov	sp, r7
 80035c4:	bd80      	pop	{r7, pc}

080035c6 <vStreamBufferDelete>:
 80035c6:	b580      	push	{r7, lr}
 80035c8:	b084      	sub	sp, #16
 80035ca:	af00      	add	r7, sp, #0
 80035cc:	6078      	str	r0, [r7, #4]
 80035ce:	687b      	ldr	r3, [r7, #4]
 80035d0:	60fb      	str	r3, [r7, #12]
 80035d2:	68fb      	ldr	r3, [r7, #12]
 80035d4:	2b00      	cmp	r3, #0
 80035d6:	d10a      	bne.n	80035ee <vStreamBufferDelete+0x28>
 80035d8:	f04f 0350 	mov.w	r3, #80	; 0x50
 80035dc:	f383 8811 	msr	BASEPRI, r3
 80035e0:	f3bf 8f6f 	isb	sy
 80035e4:	f3bf 8f4f 	dsb	sy
 80035e8:	60bb      	str	r3, [r7, #8]
 80035ea:	bf00      	nop
 80035ec:	e7fe      	b.n	80035ec <vStreamBufferDelete+0x26>
 80035ee:	68fb      	ldr	r3, [r7, #12]
 80035f0:	7f1b      	ldrb	r3, [r3, #28]
 80035f2:	f003 0302 	and.w	r3, r3, #2
 80035f6:	2b00      	cmp	r3, #0
 80035f8:	d103      	bne.n	8003602 <vStreamBufferDelete+0x3c>
 80035fa:	68f8      	ldr	r0, [r7, #12]
 80035fc:	f7fd fe72 	bl	80012e4 <vPortFree>
 8003600:	e004      	b.n	800360c <vStreamBufferDelete+0x46>
 8003602:	2228      	movs	r2, #40	; 0x28
 8003604:	2100      	movs	r1, #0
 8003606:	68f8      	ldr	r0, [r7, #12]
 8003608:	f004 fcf4 	bl	8007ff4 <memset>
 800360c:	bf00      	nop
 800360e:	3710      	adds	r7, #16
 8003610:	46bd      	mov	sp, r7
 8003612:	bd80      	pop	{r7, pc}

08003614 <xStreamBufferReset>:
 8003614:	b590      	push	{r4, r7, lr}
 8003616:	b08d      	sub	sp, #52	; 0x34
 8003618:	af04      	add	r7, sp, #16
 800361a:	6078      	str	r0, [r7, #4]
 800361c:	687b      	ldr	r3, [r7, #4]
 800361e:	61bb      	str	r3, [r7, #24]
 8003620:	2300      	movs	r3, #0
 8003622:	61fb      	str	r3, [r7, #28]
 8003624:	2300      	movs	r3, #0
 8003626:	617b      	str	r3, [r7, #20]
 8003628:	2300      	movs	r3, #0
 800362a:	613b      	str	r3, [r7, #16]
 800362c:	69bb      	ldr	r3, [r7, #24]
 800362e:	2b00      	cmp	r3, #0
 8003630:	d10a      	bne.n	8003648 <xStreamBufferReset+0x34>
 8003632:	f04f 0350 	mov.w	r3, #80	; 0x50
 8003636:	f383 8811 	msr	BASEPRI, r3
 800363a:	f3bf 8f6f 	isb	sy
 800363e:	f3bf 8f4f 	dsb	sy
 8003642:	60bb      	str	r3, [r7, #8]
 8003644:	bf00      	nop
 8003646:	e7fe      	b.n	8003646 <xStreamBufferReset+0x32>
 8003648:	69bb      	ldr	r3, [r7, #24]
 800364a:	6a1b      	ldr	r3, [r3, #32]
 800364c:	60fb      	str	r3, [r7, #12]
 800364e:	f7fd fc05 	bl	8000e5c <vPortEnterCritical>
 8003652:	69bb      	ldr	r3, [r7, #24]
 8003654:	691b      	ldr	r3, [r3, #16]
 8003656:	2b00      	cmp	r3, #0
 8003658:	d11a      	bne.n	8003690 <xStreamBufferReset+0x7c>
 800365a:	69bb      	ldr	r3, [r7, #24]
 800365c:	695b      	ldr	r3, [r3, #20]
 800365e:	2b00      	cmp	r3, #0
 8003660:	d116      	bne.n	8003690 <xStreamBufferReset+0x7c>
 8003662:	69bb      	ldr	r3, [r7, #24]
 8003664:	6999      	ldr	r1, [r3, #24]
 8003666:	69bb      	ldr	r3, [r7, #24]
 8003668:	6898      	ldr	r0, [r3, #8]
 800366a:	69bb      	ldr	r3, [r7, #24]
 800366c:	68dc      	ldr	r4, [r3, #12]
 800366e:	69bb      	ldr	r3, [r7, #24]
 8003670:	7f1b      	ldrb	r3, [r3, #28]
 8003672:	693a      	ldr	r2, [r7, #16]
 8003674:	9202      	str	r2, [sp, #8]
 8003676:	697a      	ldr	r2, [r7, #20]
 8003678:	9201      	str	r2, [sp, #4]
 800367a:	9300      	str	r3, [sp, #0]
 800367c:	4623      	mov	r3, r4
 800367e:	4602      	mov	r2, r0
 8003680:	69b8      	ldr	r0, [r7, #24]
 8003682:	f000 fde6 	bl	8004252 <prvInitialiseNewStreamBuffer>
 8003686:	69bb      	ldr	r3, [r7, #24]
 8003688:	68fa      	ldr	r2, [r7, #12]
 800368a:	621a      	str	r2, [r3, #32]
 800368c:	2301      	movs	r3, #1
 800368e:	61fb      	str	r3, [r7, #28]
 8003690:	f7fd fc14 	bl	8000ebc <vPortExitCritical>
 8003694:	69fb      	ldr	r3, [r7, #28]
 8003696:	4618      	mov	r0, r3
 8003698:	3724      	adds	r7, #36	; 0x24
 800369a:	46bd      	mov	sp, r7
 800369c:	bd90      	pop	{r4, r7, pc}

0800369e <xStreamBufferResetFromISR>:
 800369e:	b590      	push	{r4, r7, lr}
 80036a0:	b091      	sub	sp, #68	; 0x44
 80036a2:	af04      	add	r7, sp, #16
 80036a4:	6078      	str	r0, [r7, #4]
 80036a6:	687b      	ldr	r3, [r7, #4]
 80036a8:	62bb      	str	r3, [r7, #40]	; 0x28
 80036aa:	2300      	movs	r3, #0
 80036ac:	62fb      	str	r3, [r7, #44]	; 0x2c
 80036ae:	2300      	movs	r3, #0
 80036b0:	627b      	str	r3, [r7, #36]	; 0x24
 80036b2:	2300      	movs	r3, #0
 80036b4:	623b      	str	r3, [r7, #32]
 80036b6:	6abb      	ldr	r3, [r7, #40]	; 0x28
 80036b8:	2b00      	cmp	r3, #0
 80036ba:	d10a      	bne.n	80036d2 <xStreamBufferResetFromISR+0x34>
 80036bc:	f04f 0350 	mov.w	r3, #80	; 0x50
 80036c0:	f383 8811 	msr	BASEPRI, r3
 80036c4:	f3bf 8f6f 	isb	sy
 80036c8:	f3bf 8f4f 	dsb	sy
 80036cc:	617b      	str	r3, [r7, #20]
 80036ce:	bf00      	nop
 80036d0:	e7fe      	b.n	80036d0 <xStreamBufferResetFromISR+0x32>
 80036d2:	6abb      	ldr	r3, [r7, #40]	; 0x28
 80036d4:	6a1b      	ldr	r3, [r3, #32]
 80036d6:	61fb      	str	r3, [r7, #28]
 80036d8:	f3ef 8211 	mrs	r2, BASEPRI
 80036dc:	f04f 0350 	mov.w	r3, #80	; 0x50
 80036e0:	f383 8811 	msr	BASEPRI, r3
 80036e4:	f3bf 8f6f 	isb	sy
 80036e8:	f3bf 8f4f 	dsb	sy
 80036ec:	613a      	str	r2, [r7, #16]
 80036ee:	60fb      	str	r3, [r7, #12]
 80036f0:	693b      	ldr	r3, [r7, #16]
 80036f2:	61bb      	str	r3, [r7, #24]
 80036f4:	6abb      	ldr	r3, [r7, #40]	; 0x28
 80036f6:	691b      	ldr	r3, [r3, #16]
 80036f8:	2b00      	cmp	r3, #0
 80036fa:	d11a      	bne.n	8003732 <xStreamBufferResetFromISR+0x94>
 80036fc:	6abb      	ldr	r3, [r7, #40]	; 0x28
 80036fe:	695b      	ldr	r3, [r3, #20]
 8003700:	2b00      	cmp	r3, #0
 8003702:	d116      	bne.n	8003732 <xStreamBufferResetFromISR+0x94>
 8003704:	6abb      	ldr	r3, [r7, #40]	; 0x28
 8003706:	6999      	ldr	r1, [r3, #24]
 8003708:	6abb      	ldr	r3, [r7, #40]	; 0x28
 800370a:	6898      	ldr	r0, [r3, #8]
 800370c:	6abb      	ldr	r3, [r7, #40]	; 0x28
 800370e:	68dc      	ldr	r4, [r3, #12]
 8003710:	6abb      	ldr	r3, [r7, #40]	; 0x28
 8003712:	7f1b      	ldrb	r3, [r3, #28]
 8003714:	6a3a      	ldr	r2, [r7, #32]
 8003716:	9202      	str	r2, [sp, #8]
 8003718:	6a7a      	ldr	r2, [r7, #36]	; 0x24
 800371a:	9201      	str	r2, [sp, #4]
 800371c:	9300      	str	r3, [sp, #0]
 800371e:	4623      	mov	r3, r4
 8003720:	4602      	mov	r2, r0
 8003722:	6ab8      	ldr	r0, [r7, #40]	; 0x28
 8003724:	f000 fd95 	bl	8004252 <prvInitialiseNewStreamBuffer>
 8003728:	6abb      	ldr	r3, [r7, #40]	; 0x28
 800372a:	69fa      	ldr	r2, [r7, #28]
 800372c:	621a      	str	r2, [r3, #32]
 800372e:	2301      	movs	r3, #1
 8003730:	62fb      	str	r3, [r7, #44]	; 0x2c
 8003732:	69bb      	ldr	r3, [r7, #24]
 8003734:	60bb      	str	r3, [r7, #8]
 8003736:	68bb      	ldr	r3, [r7, #8]
 8003738:	f383 8811 	msr	BASEPRI, r3
 800373c:	bf00      	nop
 800373e:	6afb      	ldr	r3, [r7, #44]	; 0x2c
 8003740:	4618      	mov	r0, r3
 8003742:	3734      	adds	r7, #52	; 0x34
 8003744:	46bd      	mov	sp, r7
 8003746:	bd90      	pop	{r4, r7, pc}

08003748 <xStreamBufferSetTriggerLevel>:
 8003748:	b480      	push	{r7}
 800374a:	b087      	sub	sp, #28
 800374c:	af00      	add	r7, sp, #0
 800374e:	6078      	str	r0, [r7, #4]
 8003750:	6039      	str	r1, [r7, #0]
 8003752:	687b      	ldr	r3, [r7, #4]
 8003754:	613b      	str	r3, [r7, #16]
 8003756:	693b      	ldr	r3, [r7, #16]
 8003758:	2b00      	cmp	r3, #0
 800375a:	d10a      	bne.n	8003772 <xStreamBufferSetTriggerLevel+0x2a>
 800375c:	f04f 0350 	mov.w	r3, #80	; 0x50
 8003760:	f383 8811 	msr	BASEPRI, r3
 8003764:	f3bf 8f6f 	isb	sy
 8003768:	f3bf 8f4f 	dsb	sy
 800376c:	60fb      	str	r3, [r7, #12]
 800376e:	bf00      	nop
 8003770:	e7fe      	b.n	8003770 <xStreamBufferSetTriggerLevel+0x28>
 8003772:	683b      	ldr	r3, [r7, #0]
 8003774:	2b00      	cmp	r3, #0
 8003776:	d101      	bne.n	800377c <xStreamBufferSetTriggerLevel+0x34>
 8003778:	2301      	movs	r3, #1
 800377a:	603b      	str	r3, [r7, #0]
 800377c:	693b      	ldr	r3, [r7, #16]
 800377e:	689b      	ldr	r3, [r3, #8]
 8003780:	683a      	ldr	r2, [r7, #0]
 8003782:	429a      	cmp	r2, r3
 8003784:	d205      	bcs.n	8003792 <xStreamBufferSetTriggerLevel+0x4a>
 8003786:	693b      	ldr	r3, [r7, #16]
 8003788:	683a      	ldr	r2, [r7, #0]
 800378a:	60da      	str	r2, [r3, #12]
 800378c:	2301      	movs	r3, #1
 800378e:	617b      	str	r3, [r7, #20]
 8003790:	e001      	b.n	8003796 <xStreamBufferSetTriggerLevel+0x4e>
 8003792:	2300      	movs	r3, #0
 8003794:	617b      	str	r3, [r7, #20]
 8003796:	697b      	ldr	r3, [r7, #20]
 8003798:	4618      	mov	r0, r3
 800379a:	371c      	adds	r7, #28
 800379c:	46bd      	mov	sp, r7
 800379e:	f85d 7b04 	ldr.w	r7, [sp], #4
 80037a2:	4770      	bx	lr

080037a4 <xStreamBufferSpacesAvailable>:
 80037a4:	b480      	push	{r7}
 80037a6:	b087      	sub	sp, #28
 80037a8:	af00      	add	r7, sp, #0
 80037aa:	6078      	str	r0, [r7, #4]
 80037ac:	687b      	ldr	r3, [r7, #4]
 80037ae:	613b      	str	r3, [r7, #16]
 80037b0:	693b      	ldr	r3, [r7, #16]
 80037b2:	2b00      	cmp	r3, #0
 80037b4:	d10a      	bne.n	80037cc <xStreamBufferSpacesAvailable+0x28>
 80037b6:	f04f 0350 	mov.w	r3, #80	; 0x50
 80037ba:	f383 8811 	msr	BASEPRI, r3
 80037be:	f3bf 8f6f 	isb	sy
 80037c2:	f3bf 8f4f 	dsb	sy
 80037c6:	60bb      	str	r3, [r7, #8]
 80037c8:	bf00      	nop
 80037ca:	e7fe      	b.n	80037ca <xStreamBufferSpacesAvailable+0x26>
 80037cc:	693b      	ldr	r3, [r7, #16]
 80037ce:	681b      	ldr	r3, [r3, #0]
 80037d0:	60fb      	str	r3, [r7, #12]
 80037d2:	693b      	ldr	r3, [r7, #16]
 80037d4:	689a      	ldr	r2, [r3, #8]
 80037d6:	693b      	ldr	r3, [r7, #16]
 80037d8:	681b      	ldr	r3, [r3, #0]
 80037da:	4413      	add	r3, r2
 80037dc:	617b      	str	r3, [r7, #20]
 80037de:	693b      	ldr	r3, [r7, #16]
 80037e0:	685b      	ldr	r3, [r3, #4]
 80037e2:	697a      	ldr	r2, [r7, #20]
 80037e4:	1ad3      	subs	r3, r2, r3
 80037e6:	617b      	str	r3, [r7, #20]
 80037e8:	693b      	ldr	r3, [r7, #16]
 80037ea:	681b      	ldr	r3, [r3, #0]
 80037ec:	68fa      	ldr	r2, [r7, #12]
 80037ee:	429a      	cmp	r2, r3
 80037f0:	d1ec      	bne.n	80037cc <xStreamBufferSpacesAvailable+0x28>
 80037f2:	697b      	ldr	r3, [r7, #20]
 80037f4:	3b01      	subs	r3, #1
 80037f6:	617b      	str	r3, [r7, #20]
 80037f8:	693b      	ldr	r3, [r7, #16]
 80037fa:	689b      	ldr	r3, [r3, #8]
 80037fc:	697a      	ldr	r2, [r7, #20]
 80037fe:	429a      	cmp	r2, r3
 8003800:	d304      	bcc.n	800380c <xStreamBufferSpacesAvailable+0x68>
 8003802:	693b      	ldr	r3, [r7, #16]
 8003804:	689b      	ldr	r3, [r3, #8]
 8003806:	697a      	ldr	r2, [r7, #20]
 8003808:	1ad3      	subs	r3, r2, r3
 800380a:	617b      	str	r3, [r7, #20]
 800380c:	697b      	ldr	r3, [r7, #20]
 800380e:	4618      	mov	r0, r3
 8003810:	371c      	adds	r7, #28
 8003812:	46bd      	mov	sp, r7
 8003814:	f85d 7b04 	ldr.w	r7, [sp], #4
 8003818:	4770      	bx	lr

0800381a <xStreamBufferBytesAvailable>:
 800381a:	b580      	push	{r7, lr}
 800381c:	b086      	sub	sp, #24
 800381e:	af00      	add	r7, sp, #0
 8003820:	6078      	str	r0, [r7, #4]
 8003822:	687b      	ldr	r3, [r7, #4]
 8003824:	617b      	str	r3, [r7, #20]
